
bl1.elf:     file format elf32-littlearm


Disassembly of section .text:

d0020010 <_start>:
d0020010:	eb000005 	bl	d002002c <clock_init>
d0020014:	eb000240 	bl	d002091c <uart_init>
d0020018:	eb000407 	bl	d002103c <ddr_init>
d002001c:	eb000519 	bl	d0021488 <main>
d0020020:	e3a0d206 	mov	sp, #1610612736	; 0x60000000
d0020024:	e3a0f202 	mov	pc, #536870912	; 0x20000000

d0020028 <halt>:
d0020028:	eafffffe 	b	d0020028 <halt>

d002002c <clock_init>:
d002002c:	e52db004 	push	{fp}		; (str fp, [sp, #-4]!)
d0020030:	e28db000 	add	fp, sp, #0
d0020034:	e3003000 	movw	r3, #0
d0020038:	e34e3010 	movt	r3, #57360	; 0xe010
d002003c:	e30f2fff 	movw	r2, #65535	; 0xffff
d0020040:	e5832000 	str	r2, [r3]
d0020044:	e3003008 	movw	r3, #8
d0020048:	e34e3010 	movt	r3, #57360	; 0xe010
d002004c:	e30f2fff 	movw	r2, #65535	; 0xffff
d0020050:	e5832000 	str	r2, [r3]
d0020054:	e3003010 	movw	r3, #16
d0020058:	e34e3010 	movt	r3, #57360	; 0xe010
d002005c:	e30f2fff 	movw	r2, #65535	; 0xffff
d0020060:	e5832000 	str	r2, [r3]
d0020064:	e3003020 	movw	r3, #32
d0020068:	e34e3010 	movt	r3, #57360	; 0xe010
d002006c:	e30f2fff 	movw	r2, #65535	; 0xffff
d0020070:	e5832000 	str	r2, [r3]
d0020074:	e3003100 	movw	r3, #256	; 0x100
d0020078:	e34e3010 	movt	r3, #57360	; 0xe010
d002007c:	e3002301 	movw	r2, #769	; 0x301
d0020080:	e348207d 	movt	r2, #32893	; 0x807d
d0020084:	e5832000 	str	r2, [r3]
d0020088:	e3003108 	movw	r3, #264	; 0x108
d002008c:	e34e3010 	movt	r3, #57360	; 0xe010
d0020090:	e3002c01 	movw	r2, #3073	; 0xc01
d0020094:	e348229b 	movt	r2, #33435	; 0x829b
d0020098:	e5832000 	str	r2, [r3]
d002009c:	e3003110 	movw	r3, #272	; 0x110
d00200a0:	e34e3010 	movt	r3, #57360	; 0xe010
d00200a4:	e3002302 	movw	r2, #770	; 0x302
d00200a8:	e3482030 	movt	r2, #32816	; 0x8030
d00200ac:	e5832000 	str	r2, [r3]
d00200b0:	e3003120 	movw	r3, #288	; 0x120
d00200b4:	e34e3010 	movt	r3, #57360	; 0xe010
d00200b8:	e3002603 	movw	r2, #1539	; 0x603
d00200bc:	e348206c 	movt	r2, #32876	; 0x806c
d00200c0:	e5832000 	str	r2, [r3]
d00200c4:	e3003100 	movw	r3, #256	; 0x100
d00200c8:	e34e3010 	movt	r3, #57360	; 0xe010
d00200cc:	e5933000 	ldr	r3, [r3]
d00200d0:	e2033202 	and	r3, r3, #536870912	; 0x20000000
d00200d4:	e3530000 	cmp	r3, #0
d00200d8:	0afffff9 	beq	d00200c4 <clock_init+0x98>
d00200dc:	e3003108 	movw	r3, #264	; 0x108
d00200e0:	e34e3010 	movt	r3, #57360	; 0xe010
d00200e4:	e5933000 	ldr	r3, [r3]
d00200e8:	e2033202 	and	r3, r3, #536870912	; 0x20000000
d00200ec:	e3530000 	cmp	r3, #0
d00200f0:	0afffff9 	beq	d00200dc <clock_init+0xb0>
d00200f4:	e3003110 	movw	r3, #272	; 0x110
d00200f8:	e34e3010 	movt	r3, #57360	; 0xe010
d00200fc:	e5933000 	ldr	r3, [r3]
d0020100:	e2033202 	and	r3, r3, #536870912	; 0x20000000
d0020104:	e3530000 	cmp	r3, #0
d0020108:	0afffff9 	beq	d00200f4 <clock_init+0xc8>
d002010c:	e3003120 	movw	r3, #288	; 0x120
d0020110:	e34e3010 	movt	r3, #57360	; 0xe010
d0020114:	e5933000 	ldr	r3, [r3]
d0020118:	e2033202 	and	r3, r3, #536870912	; 0x20000000
d002011c:	e3530000 	cmp	r3, #0
d0020120:	0afffff9 	beq	d002010c <clock_init+0xe0>
d0020124:	e3003200 	movw	r3, #512	; 0x200
d0020128:	e34e3010 	movt	r3, #57360	; 0xe010
d002012c:	e3012111 	movw	r2, #4369	; 0x1111
d0020130:	e5832000 	str	r2, [r3]
d0020134:	e3003300 	movw	r3, #768	; 0x300
d0020138:	e34e3010 	movt	r3, #57360	; 0xe010
d002013c:	e3012440 	movw	r2, #5184	; 0x1440
d0020140:	e3412413 	movt	r2, #5139	; 0x1413
d0020144:	e5832000 	str	r2, [r3]
d0020148:	e28bd000 	add	sp, fp, #0
d002014c:	e8bd0800 	pop	{fp}
d0020150:	e12fff1e 	bx	lr

d0020154 <pow>:
d0020154:	e52db004 	push	{fp}		; (str fp, [sp, #-4]!)
d0020158:	e28db000 	add	fp, sp, #0
d002015c:	e24dd00c 	sub	sp, sp, #12
d0020160:	e50b0008 	str	r0, [fp, #-8]
d0020164:	e1a03001 	mov	r3, r1
d0020168:	e54b3009 	strb	r3, [fp, #-9]
d002016c:	e55b3009 	ldrb	r3, [fp, #-9]
d0020170:	e6ef3073 	uxtb	r3, r3
d0020174:	e3530000 	cmp	r3, #0
d0020178:	1a000002 	bne	d0020188 <pow+0x34>
d002017c:	e3a03001 	mov	r3, #1
d0020180:	e50b3008 	str	r3, [fp, #-8]
d0020184:	ea000014 	b	d00201dc <pow+0x88>
d0020188:	e55b3009 	ldrb	r3, [fp, #-9]
d002018c:	e6ef3073 	uxtb	r3, r3
d0020190:	e2433001 	sub	r3, r3, #1
d0020194:	e6ef3073 	uxtb	r3, r3
d0020198:	e54b3009 	strb	r3, [fp, #-9]
d002019c:	ea000003 	b	d00201b0 <pow+0x5c>
d00201a0:	e51b3008 	ldr	r3, [fp, #-8]
d00201a4:	e51b2008 	ldr	r2, [fp, #-8]
d00201a8:	e0030392 	mul	r3, r2, r3
d00201ac:	e50b3008 	str	r3, [fp, #-8]
d00201b0:	e55b3009 	ldrb	r3, [fp, #-9]
d00201b4:	e6ef3073 	uxtb	r3, r3
d00201b8:	e3530000 	cmp	r3, #0
d00201bc:	03a02000 	moveq	r2, #0
d00201c0:	13a02001 	movne	r2, #1
d00201c4:	e6ef2072 	uxtb	r2, r2
d00201c8:	e2433001 	sub	r3, r3, #1
d00201cc:	e6ef3073 	uxtb	r3, r3
d00201d0:	e54b3009 	strb	r3, [fp, #-9]
d00201d4:	e3520000 	cmp	r2, #0
d00201d8:	1afffff0 	bne	d00201a0 <pow+0x4c>
d00201dc:	e51b3008 	ldr	r3, [fp, #-8]
d00201e0:	e1a00003 	mov	r0, r3
d00201e4:	e28bd000 	add	sp, fp, #0
d00201e8:	e8bd0800 	pop	{fp}
d00201ec:	e12fff1e 	bx	lr

d00201f0 <raise>:
d00201f0:	e52db004 	push	{fp}		; (str fp, [sp, #-4]!)
d00201f4:	e28db000 	add	fp, sp, #0
d00201f8:	e24dd00c 	sub	sp, sp, #12
d00201fc:	e50b0008 	str	r0, [fp, #-8]
d0020200:	e28bd000 	add	sp, fp, #0
d0020204:	e8bd0800 	pop	{fp}
d0020208:	e12fff1e 	bx	lr

d002020c <print_clockinfo>:
d002020c:	e92d4830 	push	{r4, r5, fp, lr}
d0020210:	e28db00c 	add	fp, sp, #12
d0020214:	e24dd030 	sub	sp, sp, #48	; 0x30
d0020218:	e3003300 	movw	r3, #768	; 0x300
d002021c:	e34e3010 	movt	r3, #57360	; 0xe010
d0020220:	e5933000 	ldr	r3, [r3]
d0020224:	e6ef3073 	uxtb	r3, r3
d0020228:	e2033007 	and	r3, r3, #7
d002022c:	e54b3035 	strb	r3, [fp, #-53]	; 0x35
d0020230:	e3003300 	movw	r3, #768	; 0x300
d0020234:	e34e3010 	movt	r3, #57360	; 0xe010
d0020238:	e5933000 	ldr	r3, [r3]
d002023c:	e1a03223 	lsr	r3, r3, #4
d0020240:	e6ef3073 	uxtb	r3, r3
d0020244:	e2033007 	and	r3, r3, #7
d0020248:	e54b3036 	strb	r3, [fp, #-54]	; 0x36
d002024c:	e3003300 	movw	r3, #768	; 0x300
d0020250:	e34e3010 	movt	r3, #57360	; 0xe010
d0020254:	e5933000 	ldr	r3, [r3]
d0020258:	e1a03423 	lsr	r3, r3, #8
d002025c:	e6ef3073 	uxtb	r3, r3
d0020260:	e2033007 	and	r3, r3, #7
d0020264:	e54b3037 	strb	r3, [fp, #-55]	; 0x37
d0020268:	e3003300 	movw	r3, #768	; 0x300
d002026c:	e34e3010 	movt	r3, #57360	; 0xe010
d0020270:	e5933000 	ldr	r3, [r3]
d0020274:	e1a03623 	lsr	r3, r3, #12
d0020278:	e6ef3073 	uxtb	r3, r3
d002027c:	e2033007 	and	r3, r3, #7
d0020280:	e54b3038 	strb	r3, [fp, #-56]	; 0x38
d0020284:	e3003300 	movw	r3, #768	; 0x300
d0020288:	e34e3010 	movt	r3, #57360	; 0xe010
d002028c:	e5933000 	ldr	r3, [r3]
d0020290:	e1a03823 	lsr	r3, r3, #16
d0020294:	e6ef3073 	uxtb	r3, r3
d0020298:	e2033007 	and	r3, r3, #7
d002029c:	e54b3039 	strb	r3, [fp, #-57]	; 0x39
d00202a0:	e3003300 	movw	r3, #768	; 0x300
d00202a4:	e34e3010 	movt	r3, #57360	; 0xe010
d00202a8:	e5933000 	ldr	r3, [r3]
d00202ac:	e1a03a23 	lsr	r3, r3, #20
d00202b0:	e6ef3073 	uxtb	r3, r3
d00202b4:	e2033007 	and	r3, r3, #7
d00202b8:	e54b303a 	strb	r3, [fp, #-58]	; 0x3a
d00202bc:	e3003300 	movw	r3, #768	; 0x300
d00202c0:	e34e3010 	movt	r3, #57360	; 0xe010
d00202c4:	e5933000 	ldr	r3, [r3]
d00202c8:	e1a03c23 	lsr	r3, r3, #24
d00202cc:	e6ef3073 	uxtb	r3, r3
d00202d0:	e2033007 	and	r3, r3, #7
d00202d4:	e54b303b 	strb	r3, [fp, #-59]	; 0x3b
d00202d8:	e3003300 	movw	r3, #768	; 0x300
d00202dc:	e34e3010 	movt	r3, #57360	; 0xe010
d00202e0:	e5933000 	ldr	r3, [r3]
d00202e4:	e1a03e23 	lsr	r3, r3, #28
d00202e8:	e6ef3073 	uxtb	r3, r3
d00202ec:	e2033007 	and	r3, r3, #7
d00202f0:	e54b303c 	strb	r3, [fp, #-60]	; 0x3c
d00202f4:	e3003200 	movw	r3, #512	; 0x200
d00202f8:	e34e3010 	movt	r3, #57360	; 0xe010
d00202fc:	e5933000 	ldr	r3, [r3]
d0020300:	e2033001 	and	r3, r3, #1
d0020304:	e6ef3073 	uxtb	r3, r3
d0020308:	e3530000 	cmp	r3, #0
d002030c:	0a00002f 	beq	d00203d0 <print_clockinfo+0x1c4>
d0020310:	e3003100 	movw	r3, #256	; 0x100
d0020314:	e34e3010 	movt	r3, #57360	; 0xe010
d0020318:	e5933000 	ldr	r3, [r3]
d002031c:	e1a03423 	lsr	r3, r3, #8
d0020320:	e6ff3073 	uxth	r3, r3
d0020324:	e203303f 	and	r3, r3, #63	; 0x3f
d0020328:	e14b30be 	strh	r3, [fp, #-14]
d002032c:	e3003100 	movw	r3, #256	; 0x100
d0020330:	e34e3010 	movt	r3, #57360	; 0xe010
d0020334:	e5933000 	ldr	r3, [r3]
d0020338:	e1a03823 	lsr	r3, r3, #16
d002033c:	e6ff3073 	uxth	r3, r3
d0020340:	e1a03b03 	lsl	r3, r3, #22
d0020344:	e1a03b23 	lsr	r3, r3, #22
d0020348:	e14b31b0 	strh	r3, [fp, #-16]
d002034c:	e3003100 	movw	r3, #256	; 0x100
d0020350:	e34e3010 	movt	r3, #57360	; 0xe010
d0020354:	e5933000 	ldr	r3, [r3]
d0020358:	e6ff3073 	uxth	r3, r3
d002035c:	e2033007 	and	r3, r3, #7
d0020360:	e14b31b2 	strh	r3, [fp, #-18]	; 0xffffffee
d0020364:	e15b31b0 	ldrh	r3, [fp, #-16]
d0020368:	e6ff3073 	uxth	r3, r3
d002036c:	e1a02003 	mov	r2, r3
d0020370:	e1a03002 	mov	r3, r2
d0020374:	e1a03083 	lsl	r3, r3, #1
d0020378:	e0833002 	add	r3, r3, r2
d002037c:	e1a03183 	lsl	r3, r3, #3
d0020380:	e1a04003 	mov	r4, r3
d0020384:	e15b30be 	ldrh	r3, [fp, #-14]
d0020388:	e6ff3073 	uxth	r3, r3
d002038c:	e1a05003 	mov	r5, r3
d0020390:	e15b31b2 	ldrh	r3, [fp, #-18]	; 0xffffffee
d0020394:	e6ff3073 	uxth	r3, r3
d0020398:	e6ef3073 	uxtb	r3, r3
d002039c:	e2433001 	sub	r3, r3, #1
d00203a0:	e6ef3073 	uxtb	r3, r3
d00203a4:	e3a00002 	mov	r0, #2
d00203a8:	e1a01003 	mov	r1, r3
d00203ac:	ebffff68 	bl	d0020154 <pow>
d00203b0:	e1a03000 	mov	r3, r0
d00203b4:	e0030593 	mul	r3, r3, r5
d00203b8:	e1a00004 	mov	r0, r4
d00203bc:	e1a01003 	mov	r1, r3
d00203c0:	eb00043f 	bl	d00214c4 <__aeabi_uidiv>
d00203c4:	e1a03000 	mov	r3, r0
d00203c8:	e50b3018 	str	r3, [fp, #-24]
d00203cc:	ea000001 	b	d00203d8 <print_clockinfo+0x1cc>
d00203d0:	e3a03018 	mov	r3, #24
d00203d4:	e50b3018 	str	r3, [fp, #-24]
d00203d8:	e3003200 	movw	r3, #512	; 0x200
d00203dc:	e34e3010 	movt	r3, #57360	; 0xe010
d00203e0:	e5933000 	ldr	r3, [r3]
d00203e4:	e2033010 	and	r3, r3, #16
d00203e8:	e3530000 	cmp	r3, #0
d00203ec:	0a00002d 	beq	d00204a8 <print_clockinfo+0x29c>
d00203f0:	e3003108 	movw	r3, #264	; 0x108
d00203f4:	e34e3010 	movt	r3, #57360	; 0xe010
d00203f8:	e5933000 	ldr	r3, [r3]
d00203fc:	e1a03423 	lsr	r3, r3, #8
d0020400:	e6ff3073 	uxth	r3, r3
d0020404:	e203303f 	and	r3, r3, #63	; 0x3f
d0020408:	e14b30be 	strh	r3, [fp, #-14]
d002040c:	e3003108 	movw	r3, #264	; 0x108
d0020410:	e34e3010 	movt	r3, #57360	; 0xe010
d0020414:	e5933000 	ldr	r3, [r3]
d0020418:	e1a03823 	lsr	r3, r3, #16
d002041c:	e6ff3073 	uxth	r3, r3
d0020420:	e1a03b03 	lsl	r3, r3, #22
d0020424:	e1a03b23 	lsr	r3, r3, #22
d0020428:	e14b31b0 	strh	r3, [fp, #-16]
d002042c:	e3003108 	movw	r3, #264	; 0x108
d0020430:	e34e3010 	movt	r3, #57360	; 0xe010
d0020434:	e5933000 	ldr	r3, [r3]
d0020438:	e6ff3073 	uxth	r3, r3
d002043c:	e2033007 	and	r3, r3, #7
d0020440:	e14b31b2 	strh	r3, [fp, #-18]	; 0xffffffee
d0020444:	e15b31b0 	ldrh	r3, [fp, #-16]
d0020448:	e6ff3073 	uxth	r3, r3
d002044c:	e1a02003 	mov	r2, r3
d0020450:	e1a03002 	mov	r3, r2
d0020454:	e1a03083 	lsl	r3, r3, #1
d0020458:	e0833002 	add	r3, r3, r2
d002045c:	e1a03183 	lsl	r3, r3, #3
d0020460:	e1a04003 	mov	r4, r3
d0020464:	e15b30be 	ldrh	r3, [fp, #-14]
d0020468:	e6ff3073 	uxth	r3, r3
d002046c:	e1a05003 	mov	r5, r3
d0020470:	e15b31b2 	ldrh	r3, [fp, #-18]	; 0xffffffee
d0020474:	e6ff3073 	uxth	r3, r3
d0020478:	e6ef3073 	uxtb	r3, r3
d002047c:	e3a00002 	mov	r0, #2
d0020480:	e1a01003 	mov	r1, r3
d0020484:	ebffff32 	bl	d0020154 <pow>
d0020488:	e1a03000 	mov	r3, r0
d002048c:	e0030593 	mul	r3, r3, r5
d0020490:	e1a00004 	mov	r0, r4
d0020494:	e1a01003 	mov	r1, r3
d0020498:	eb000409 	bl	d00214c4 <__aeabi_uidiv>
d002049c:	e1a03000 	mov	r3, r0
d00204a0:	e50b301c 	str	r3, [fp, #-28]
d00204a4:	ea000001 	b	d00204b0 <print_clockinfo+0x2a4>
d00204a8:	e3a03018 	mov	r3, #24
d00204ac:	e50b301c 	str	r3, [fp, #-28]
d00204b0:	e3003200 	movw	r3, #512	; 0x200
d00204b4:	e34e3010 	movt	r3, #57360	; 0xe010
d00204b8:	e5933000 	ldr	r3, [r3]
d00204bc:	e2033c01 	and	r3, r3, #256	; 0x100
d00204c0:	e3530000 	cmp	r3, #0
d00204c4:	0a00003a 	beq	d00205b4 <print_clockinfo+0x3a8>
d00204c8:	e3003110 	movw	r3, #272	; 0x110
d00204cc:	e34e3010 	movt	r3, #57360	; 0xe010
d00204d0:	e5933000 	ldr	r3, [r3]
d00204d4:	e1a03423 	lsr	r3, r3, #8
d00204d8:	e6ff3073 	uxth	r3, r3
d00204dc:	e203303f 	and	r3, r3, #63	; 0x3f
d00204e0:	e14b30be 	strh	r3, [fp, #-14]
d00204e4:	e3003110 	movw	r3, #272	; 0x110
d00204e8:	e34e3010 	movt	r3, #57360	; 0xe010
d00204ec:	e5933000 	ldr	r3, [r3]
d00204f0:	e1a03823 	lsr	r3, r3, #16
d00204f4:	e6ff3073 	uxth	r3, r3
d00204f8:	e1a03b83 	lsl	r3, r3, #23
d00204fc:	e1a03ba3 	lsr	r3, r3, #23
d0020500:	e14b31b0 	strh	r3, [fp, #-16]
d0020504:	e3003110 	movw	r3, #272	; 0x110
d0020508:	e34e3010 	movt	r3, #57360	; 0xe010
d002050c:	e5933000 	ldr	r3, [r3]
d0020510:	e6ff3073 	uxth	r3, r3
d0020514:	e2033007 	and	r3, r3, #7
d0020518:	e14b31b2 	strh	r3, [fp, #-18]	; 0xffffffee
d002051c:	e3003114 	movw	r3, #276	; 0x114
d0020520:	e34e3010 	movt	r3, #57360	; 0xe010
d0020524:	e5933000 	ldr	r3, [r3]
d0020528:	e6ff3073 	uxth	r3, r3
d002052c:	e14b31b4 	strh	r3, [fp, #-20]	; 0xffffffec
d0020530:	e15b31b0 	ldrh	r3, [fp, #-16]
d0020534:	e6ff3073 	uxth	r3, r3
d0020538:	e1a01003 	mov	r1, r3
d002053c:	e15b31b4 	ldrh	r3, [fp, #-20]	; 0xffffffec
d0020540:	e6ff3073 	uxth	r3, r3
d0020544:	e2832cff 	add	r2, r3, #65280	; 0xff00
d0020548:	e28220ff 	add	r2, r2, #255	; 0xff
d002054c:	e3530000 	cmp	r3, #0
d0020550:	b1a03002 	movlt	r3, r2
d0020554:	e1a03843 	asr	r3, r3, #16
d0020558:	e0812003 	add	r2, r1, r3
d002055c:	e1a03002 	mov	r3, r2
d0020560:	e1a03083 	lsl	r3, r3, #1
d0020564:	e0833002 	add	r3, r3, r2
d0020568:	e1a03183 	lsl	r3, r3, #3
d002056c:	e1a04003 	mov	r4, r3
d0020570:	e15b30be 	ldrh	r3, [fp, #-14]
d0020574:	e6ff3073 	uxth	r3, r3
d0020578:	e1a05003 	mov	r5, r3
d002057c:	e15b31b2 	ldrh	r3, [fp, #-18]	; 0xffffffee
d0020580:	e6ff3073 	uxth	r3, r3
d0020584:	e6ef3073 	uxtb	r3, r3
d0020588:	e3a00002 	mov	r0, #2
d002058c:	e1a01003 	mov	r1, r3
d0020590:	ebfffeef 	bl	d0020154 <pow>
d0020594:	e1a03000 	mov	r3, r0
d0020598:	e0030593 	mul	r3, r3, r5
d002059c:	e1a00004 	mov	r0, r4
d00205a0:	e1a01003 	mov	r1, r3
d00205a4:	eb0003c6 	bl	d00214c4 <__aeabi_uidiv>
d00205a8:	e1a03000 	mov	r3, r0
d00205ac:	e50b3020 	str	r3, [fp, #-32]
d00205b0:	ea000001 	b	d00205bc <print_clockinfo+0x3b0>
d00205b4:	e3a03018 	mov	r3, #24
d00205b8:	e50b3020 	str	r3, [fp, #-32]
d00205bc:	e3003200 	movw	r3, #512	; 0x200
d00205c0:	e34e3010 	movt	r3, #57360	; 0xe010
d00205c4:	e5933000 	ldr	r3, [r3]
d00205c8:	e2033a01 	and	r3, r3, #4096	; 0x1000
d00205cc:	e3530000 	cmp	r3, #0
d00205d0:	0a00002d 	beq	d002068c <print_clockinfo+0x480>
d00205d4:	e3003120 	movw	r3, #288	; 0x120
d00205d8:	e34e3010 	movt	r3, #57360	; 0xe010
d00205dc:	e5933000 	ldr	r3, [r3]
d00205e0:	e1a03423 	lsr	r3, r3, #8
d00205e4:	e6ff3073 	uxth	r3, r3
d00205e8:	e203303f 	and	r3, r3, #63	; 0x3f
d00205ec:	e14b30be 	strh	r3, [fp, #-14]
d00205f0:	e3003120 	movw	r3, #288	; 0x120
d00205f4:	e34e3010 	movt	r3, #57360	; 0xe010
d00205f8:	e5933000 	ldr	r3, [r3]
d00205fc:	e1a03823 	lsr	r3, r3, #16
d0020600:	e6ff3073 	uxth	r3, r3
d0020604:	e1a03b83 	lsl	r3, r3, #23
d0020608:	e1a03ba3 	lsr	r3, r3, #23
d002060c:	e14b31b0 	strh	r3, [fp, #-16]
d0020610:	e3003120 	movw	r3, #288	; 0x120
d0020614:	e34e3010 	movt	r3, #57360	; 0xe010
d0020618:	e5933000 	ldr	r3, [r3]
d002061c:	e6ff3073 	uxth	r3, r3
d0020620:	e2033007 	and	r3, r3, #7
d0020624:	e14b31b2 	strh	r3, [fp, #-18]	; 0xffffffee
d0020628:	e15b31b0 	ldrh	r3, [fp, #-16]
d002062c:	e6ff3073 	uxth	r3, r3
d0020630:	e1a02003 	mov	r2, r3
d0020634:	e1a03002 	mov	r3, r2
d0020638:	e1a03083 	lsl	r3, r3, #1
d002063c:	e0833002 	add	r3, r3, r2
d0020640:	e1a03183 	lsl	r3, r3, #3
d0020644:	e1a04003 	mov	r4, r3
d0020648:	e15b30be 	ldrh	r3, [fp, #-14]
d002064c:	e6ff3073 	uxth	r3, r3
d0020650:	e1a05003 	mov	r5, r3
d0020654:	e15b31b2 	ldrh	r3, [fp, #-18]	; 0xffffffee
d0020658:	e6ff3073 	uxth	r3, r3
d002065c:	e6ef3073 	uxtb	r3, r3
d0020660:	e3a00002 	mov	r0, #2
d0020664:	e1a01003 	mov	r1, r3
d0020668:	ebfffeb9 	bl	d0020154 <pow>
d002066c:	e1a03000 	mov	r3, r0
d0020670:	e0030593 	mul	r3, r3, r5
d0020674:	e1a00004 	mov	r0, r4
d0020678:	e1a01003 	mov	r1, r3
d002067c:	eb000390 	bl	d00214c4 <__aeabi_uidiv>
d0020680:	e1a03000 	mov	r3, r0
d0020684:	e50b3024 	str	r3, [fp, #-36]	; 0x24
d0020688:	ea000001 	b	d0020694 <print_clockinfo+0x488>
d002068c:	e3a03018 	mov	r3, #24
d0020690:	e50b3024 	str	r3, [fp, #-36]	; 0x24
d0020694:	e3003200 	movw	r3, #512	; 0x200
d0020698:	e34e3010 	movt	r3, #57360	; 0xe010
d002069c:	e5933000 	ldr	r3, [r3]
d00206a0:	e2033801 	and	r3, r3, #65536	; 0x10000
d00206a4:	e3530000 	cmp	r3, #0
d00206a8:	0a000002 	beq	d00206b8 <print_clockinfo+0x4ac>
d00206ac:	e51b301c 	ldr	r3, [fp, #-28]
d00206b0:	e50b302c 	str	r3, [fp, #-44]	; 0x2c
d00206b4:	ea000001 	b	d00206c0 <print_clockinfo+0x4b4>
d00206b8:	e51b3018 	ldr	r3, [fp, #-24]
d00206bc:	e50b302c 	str	r3, [fp, #-44]	; 0x2c
d00206c0:	e3003200 	movw	r3, #512	; 0x200
d00206c4:	e34e3010 	movt	r3, #57360	; 0xe010
d00206c8:	e5933000 	ldr	r3, [r3]
d00206cc:	e2033601 	and	r3, r3, #1048576	; 0x100000
d00206d0:	e3530000 	cmp	r3, #0
d00206d4:	0a000009 	beq	d0020700 <print_clockinfo+0x4f4>
d00206d8:	e51b2018 	ldr	r2, [fp, #-24]
d00206dc:	e55b3036 	ldrb	r3, [fp, #-54]	; 0x36
d00206e0:	e6ef3073 	uxtb	r3, r3
d00206e4:	e2833001 	add	r3, r3, #1
d00206e8:	e1a00002 	mov	r0, r2
d00206ec:	e1a01003 	mov	r1, r3
d00206f0:	eb000373 	bl	d00214c4 <__aeabi_uidiv>
d00206f4:	e1a03000 	mov	r3, r0
d00206f8:	e50b3030 	str	r3, [fp, #-48]	; 0x30
d00206fc:	ea000001 	b	d0020708 <print_clockinfo+0x4fc>
d0020700:	e51b301c 	ldr	r3, [fp, #-28]
d0020704:	e50b3030 	str	r3, [fp, #-48]	; 0x30
d0020708:	e3003200 	movw	r3, #512	; 0x200
d002070c:	e34e3010 	movt	r3, #57360	; 0xe010
d0020710:	e5933000 	ldr	r3, [r3]
d0020714:	e2033401 	and	r3, r3, #16777216	; 0x1000000
d0020718:	e3530000 	cmp	r3, #0
d002071c:	0a000009 	beq	d0020748 <print_clockinfo+0x53c>
d0020720:	e51b2018 	ldr	r2, [fp, #-24]
d0020724:	e55b3036 	ldrb	r3, [fp, #-54]	; 0x36
d0020728:	e6ef3073 	uxtb	r3, r3
d002072c:	e2833001 	add	r3, r3, #1
d0020730:	e1a00002 	mov	r0, r2
d0020734:	e1a01003 	mov	r1, r3
d0020738:	eb000361 	bl	d00214c4 <__aeabi_uidiv>
d002073c:	e1a03000 	mov	r3, r0
d0020740:	e50b3034 	str	r3, [fp, #-52]	; 0x34
d0020744:	ea000001 	b	d0020750 <print_clockinfo+0x544>
d0020748:	e51b301c 	ldr	r3, [fp, #-28]
d002074c:	e50b3034 	str	r3, [fp, #-52]	; 0x34
d0020750:	e51b202c 	ldr	r2, [fp, #-44]	; 0x2c
d0020754:	e55b3035 	ldrb	r3, [fp, #-53]	; 0x35
d0020758:	e6ef3073 	uxtb	r3, r3
d002075c:	e2833001 	add	r3, r3, #1
d0020760:	e1a00002 	mov	r0, r2
d0020764:	e1a01003 	mov	r1, r3
d0020768:	eb000355 	bl	d00214c4 <__aeabi_uidiv>
d002076c:	e1a03000 	mov	r3, r0
d0020770:	e50b3028 	str	r3, [fp, #-40]	; 0x28
d0020774:	e51b3028 	ldr	r3, [fp, #-40]	; 0x28
d0020778:	e3010598 	movw	r0, #5528	; 0x1598
d002077c:	e34d0002 	movt	r0, #53250	; 0xd002
d0020780:	e1a01003 	mov	r1, r3
d0020784:	eb0001ba 	bl	d0020e74 <printf>
d0020788:	e51b2018 	ldr	r2, [fp, #-24]
d002078c:	e55b3036 	ldrb	r3, [fp, #-54]	; 0x36
d0020790:	e6ef3073 	uxtb	r3, r3
d0020794:	e2833001 	add	r3, r3, #1
d0020798:	e1a00002 	mov	r0, r2
d002079c:	e1a01003 	mov	r1, r3
d00207a0:	eb000347 	bl	d00214c4 <__aeabi_uidiv>
d00207a4:	e1a03000 	mov	r3, r0
d00207a8:	e30105ac 	movw	r0, #5548	; 0x15ac
d00207ac:	e34d0002 	movt	r0, #53250	; 0xd002
d00207b0:	e1a01003 	mov	r1, r3
d00207b4:	eb0001ae 	bl	d0020e74 <printf>
d00207b8:	e51b2028 	ldr	r2, [fp, #-40]	; 0x28
d00207bc:	e55b3037 	ldrb	r3, [fp, #-55]	; 0x37
d00207c0:	e6ef3073 	uxtb	r3, r3
d00207c4:	e2833001 	add	r3, r3, #1
d00207c8:	e1a00002 	mov	r0, r2
d00207cc:	e1a01003 	mov	r1, r3
d00207d0:	eb00033b 	bl	d00214c4 <__aeabi_uidiv>
d00207d4:	e1a03000 	mov	r3, r0
d00207d8:	e50b3028 	str	r3, [fp, #-40]	; 0x28
d00207dc:	e51b3028 	ldr	r3, [fp, #-40]	; 0x28
d00207e0:	e30105c0 	movw	r0, #5568	; 0x15c0
d00207e4:	e34d0002 	movt	r0, #53250	; 0xd002
d00207e8:	e1a01003 	mov	r1, r3
d00207ec:	eb0001a0 	bl	d0020e74 <printf>
d00207f0:	e51b2028 	ldr	r2, [fp, #-40]	; 0x28
d00207f4:	e55b3038 	ldrb	r3, [fp, #-56]	; 0x38
d00207f8:	e6ef3073 	uxtb	r3, r3
d00207fc:	e2833001 	add	r3, r3, #1
d0020800:	e1a00002 	mov	r0, r2
d0020804:	e1a01003 	mov	r1, r3
d0020808:	eb00032d 	bl	d00214c4 <__aeabi_uidiv>
d002080c:	e1a03000 	mov	r3, r0
d0020810:	e50b3028 	str	r3, [fp, #-40]	; 0x28
d0020814:	e51b3028 	ldr	r3, [fp, #-40]	; 0x28
d0020818:	e30105d8 	movw	r0, #5592	; 0x15d8
d002081c:	e34d0002 	movt	r0, #53250	; 0xd002
d0020820:	e1a01003 	mov	r1, r3
d0020824:	eb000192 	bl	d0020e74 <printf>
d0020828:	e51b2030 	ldr	r2, [fp, #-48]	; 0x30
d002082c:	e55b3039 	ldrb	r3, [fp, #-57]	; 0x39
d0020830:	e6ef3073 	uxtb	r3, r3
d0020834:	e2833001 	add	r3, r3, #1
d0020838:	e1a00002 	mov	r0, r2
d002083c:	e1a01003 	mov	r1, r3
d0020840:	eb00031f 	bl	d00214c4 <__aeabi_uidiv>
d0020844:	e1a03000 	mov	r3, r0
d0020848:	e50b3028 	str	r3, [fp, #-40]	; 0x28
d002084c:	e51b3028 	ldr	r3, [fp, #-40]	; 0x28
d0020850:	e30105f0 	movw	r0, #5616	; 0x15f0
d0020854:	e34d0002 	movt	r0, #53250	; 0xd002
d0020858:	e1a01003 	mov	r1, r3
d002085c:	eb000184 	bl	d0020e74 <printf>
d0020860:	e51b2028 	ldr	r2, [fp, #-40]	; 0x28
d0020864:	e55b303a 	ldrb	r3, [fp, #-58]	; 0x3a
d0020868:	e6ef3073 	uxtb	r3, r3
d002086c:	e2833001 	add	r3, r3, #1
d0020870:	e1a00002 	mov	r0, r2
d0020874:	e1a01003 	mov	r1, r3
d0020878:	eb000311 	bl	d00214c4 <__aeabi_uidiv>
d002087c:	e1a03000 	mov	r3, r0
d0020880:	e50b3028 	str	r3, [fp, #-40]	; 0x28
d0020884:	e51b3028 	ldr	r3, [fp, #-40]	; 0x28
d0020888:	e3010608 	movw	r0, #5640	; 0x1608
d002088c:	e34d0002 	movt	r0, #53250	; 0xd002
d0020890:	e1a01003 	mov	r1, r3
d0020894:	eb000176 	bl	d0020e74 <printf>
d0020898:	e51b2034 	ldr	r2, [fp, #-52]	; 0x34
d002089c:	e55b303b 	ldrb	r3, [fp, #-59]	; 0x3b
d00208a0:	e6ef3073 	uxtb	r3, r3
d00208a4:	e2833001 	add	r3, r3, #1
d00208a8:	e1a00002 	mov	r0, r2
d00208ac:	e1a01003 	mov	r1, r3
d00208b0:	eb000303 	bl	d00214c4 <__aeabi_uidiv>
d00208b4:	e1a03000 	mov	r3, r0
d00208b8:	e50b3028 	str	r3, [fp, #-40]	; 0x28
d00208bc:	e51b3028 	ldr	r3, [fp, #-40]	; 0x28
d00208c0:	e3010620 	movw	r0, #5664	; 0x1620
d00208c4:	e34d0002 	movt	r0, #53250	; 0xd002
d00208c8:	e1a01003 	mov	r1, r3
d00208cc:	eb000168 	bl	d0020e74 <printf>
d00208d0:	e51b2028 	ldr	r2, [fp, #-40]	; 0x28
d00208d4:	e55b303c 	ldrb	r3, [fp, #-60]	; 0x3c
d00208d8:	e6ef3073 	uxtb	r3, r3
d00208dc:	e2833001 	add	r3, r3, #1
d00208e0:	e1a00002 	mov	r0, r2
d00208e4:	e1a01003 	mov	r1, r3
d00208e8:	eb0002f5 	bl	d00214c4 <__aeabi_uidiv>
d00208ec:	e1a03000 	mov	r3, r0
d00208f0:	e3010634 	movw	r0, #5684	; 0x1634
d00208f4:	e34d0002 	movt	r0, #53250	; 0xd002
d00208f8:	e1a01003 	mov	r1, r3
d00208fc:	eb00015c 	bl	d0020e74 <printf>
d0020900:	e51b3020 	ldr	r3, [fp, #-32]
d0020904:	e301064c 	movw	r0, #5708	; 0x164c
d0020908:	e34d0002 	movt	r0, #53250	; 0xd002
d002090c:	e1a01003 	mov	r1, r3
d0020910:	eb000157 	bl	d0020e74 <printf>
d0020914:	e24bd00c 	sub	sp, fp, #12
d0020918:	e8bd8830 	pop	{r4, r5, fp, pc}

d002091c <uart_init>:
d002091c:	e52db004 	push	{fp}		; (str fp, [sp, #-4]!)
d0020920:	e28db000 	add	fp, sp, #0
d0020924:	e3003000 	movw	r3, #0
d0020928:	e34e3020 	movt	r3, #57376	; 0xe020
d002092c:	e3002000 	movw	r2, #0
d0020930:	e34e2020 	movt	r2, #57376	; 0xe020
d0020934:	e5922000 	ldr	r2, [r2]
d0020938:	e3c220ff 	bic	r2, r2, #255	; 0xff
d002093c:	e5832000 	str	r2, [r3]
d0020940:	e3003000 	movw	r3, #0
d0020944:	e34e3020 	movt	r3, #57376	; 0xe020
d0020948:	e3002000 	movw	r2, #0
d002094c:	e34e2020 	movt	r2, #57376	; 0xe020
d0020950:	e5922000 	ldr	r2, [r2]
d0020954:	e3822022 	orr	r2, r2, #34	; 0x22
d0020958:	e5832000 	str	r2, [r3]
d002095c:	e3003000 	movw	r3, #0
d0020960:	e34e3290 	movt	r3, #58000	; 0xe290
d0020964:	e3a02003 	mov	r2, #3
d0020968:	e5832000 	str	r2, [r3]
d002096c:	e3003004 	movw	r3, #4
d0020970:	e34e3290 	movt	r3, #58000	; 0xe290
d0020974:	e3a02005 	mov	r2, #5
d0020978:	e5832000 	str	r2, [r3]
d002097c:	e3003008 	movw	r3, #8
d0020980:	e34e3290 	movt	r3, #58000	; 0xe290
d0020984:	e3a02000 	mov	r2, #0
d0020988:	e5832000 	str	r2, [r3]
d002098c:	e3003028 	movw	r3, #40	; 0x28
d0020990:	e34e3290 	movt	r3, #58000	; 0xe290
d0020994:	e3a02022 	mov	r2, #34	; 0x22
d0020998:	e5832000 	str	r2, [r3]
d002099c:	e300302c 	movw	r3, #44	; 0x2c
d00209a0:	e34e3290 	movt	r3, #58000	; 0xe290
d00209a4:	e30d2ddd 	movw	r2, #56797	; 0xdddd
d00209a8:	e5832000 	str	r2, [r3]
d00209ac:	e28bd000 	add	sp, fp, #0
d00209b0:	e8bd0800 	pop	{fp}
d00209b4:	e12fff1e 	bx	lr

d00209b8 <uart_send_byte>:
d00209b8:	e52db004 	push	{fp}		; (str fp, [sp, #-4]!)
d00209bc:	e28db000 	add	fp, sp, #0
d00209c0:	e24dd00c 	sub	sp, sp, #12
d00209c4:	e1a03000 	mov	r3, r0
d00209c8:	e54b3005 	strb	r3, [fp, #-5]
d00209cc:	e3003010 	movw	r3, #16
d00209d0:	e34e3290 	movt	r3, #58000	; 0xe290
d00209d4:	e5933000 	ldr	r3, [r3]
d00209d8:	e2033004 	and	r3, r3, #4
d00209dc:	e3530000 	cmp	r3, #0
d00209e0:	0afffff9 	beq	d00209cc <uart_send_byte+0x14>
d00209e4:	e3003020 	movw	r3, #32
d00209e8:	e34e3290 	movt	r3, #58000	; 0xe290
d00209ec:	e55b2005 	ldrb	r2, [fp, #-5]
d00209f0:	e6ef2072 	uxtb	r2, r2
d00209f4:	e5832000 	str	r2, [r3]
d00209f8:	e28bd000 	add	sp, fp, #0
d00209fc:	e8bd0800 	pop	{fp}
d0020a00:	e12fff1e 	bx	lr

d0020a04 <uart_recv_byte>:
d0020a04:	e52db004 	push	{fp}		; (str fp, [sp, #-4]!)
d0020a08:	e28db000 	add	fp, sp, #0
d0020a0c:	e3003010 	movw	r3, #16
d0020a10:	e34e3290 	movt	r3, #58000	; 0xe290
d0020a14:	e5933000 	ldr	r3, [r3]
d0020a18:	e2033001 	and	r3, r3, #1
d0020a1c:	e3530000 	cmp	r3, #0
d0020a20:	0afffff9 	beq	d0020a0c <uart_recv_byte+0x8>
d0020a24:	e3003024 	movw	r3, #36	; 0x24
d0020a28:	e34e3290 	movt	r3, #58000	; 0xe290
d0020a2c:	e5933000 	ldr	r3, [r3]
d0020a30:	e6ef3073 	uxtb	r3, r3
d0020a34:	e1a00003 	mov	r0, r3
d0020a38:	e28bd000 	add	sp, fp, #0
d0020a3c:	e8bd0800 	pop	{fp}
d0020a40:	e12fff1e 	bx	lr

d0020a44 <putchar>:
d0020a44:	e92d4800 	push	{fp, lr}
d0020a48:	e28db004 	add	fp, sp, #4
d0020a4c:	e24dd008 	sub	sp, sp, #8
d0020a50:	e50b0008 	str	r0, [fp, #-8]
d0020a54:	e51b3008 	ldr	r3, [fp, #-8]
d0020a58:	e6ef3073 	uxtb	r3, r3
d0020a5c:	e1a00003 	mov	r0, r3
d0020a60:	ebffffd4 	bl	d00209b8 <uart_send_byte>
d0020a64:	e51b3008 	ldr	r3, [fp, #-8]
d0020a68:	e353000a 	cmp	r3, #10
d0020a6c:	1a000001 	bne	d0020a78 <putchar+0x34>
d0020a70:	e3a0000d 	mov	r0, #13
d0020a74:	ebffffcf 	bl	d00209b8 <uart_send_byte>
d0020a78:	e24bd004 	sub	sp, fp, #4
d0020a7c:	e8bd8800 	pop	{fp, pc}

d0020a80 <getchar>:
d0020a80:	e92d4800 	push	{fp, lr}
d0020a84:	e28db004 	add	fp, sp, #4
d0020a88:	e24dd008 	sub	sp, sp, #8
d0020a8c:	ebffffdc 	bl	d0020a04 <uart_recv_byte>
d0020a90:	e1a03000 	mov	r3, r0
d0020a94:	e50b3008 	str	r3, [fp, #-8]
d0020a98:	e51b3008 	ldr	r3, [fp, #-8]
d0020a9c:	e1a00003 	mov	r0, r3
d0020aa0:	e24bd004 	sub	sp, fp, #4
d0020aa4:	e8bd8800 	pop	{fp, pc}

d0020aa8 <puts>:
d0020aa8:	e92d4800 	push	{fp, lr}
d0020aac:	e28db004 	add	fp, sp, #4
d0020ab0:	e24dd010 	sub	sp, sp, #16
d0020ab4:	e50b0010 	str	r0, [fp, #-16]
d0020ab8:	e51b3010 	ldr	r3, [fp, #-16]
d0020abc:	e50b3008 	str	r3, [fp, #-8]
d0020ac0:	ea000006 	b	d0020ae0 <puts+0x38>
d0020ac4:	e51b3008 	ldr	r3, [fp, #-8]
d0020ac8:	e5d33000 	ldrb	r3, [r3]
d0020acc:	e51b2008 	ldr	r2, [fp, #-8]
d0020ad0:	e2822001 	add	r2, r2, #1
d0020ad4:	e50b2008 	str	r2, [fp, #-8]
d0020ad8:	e1a00003 	mov	r0, r3
d0020adc:	ebffffd8 	bl	d0020a44 <putchar>
d0020ae0:	e51b3008 	ldr	r3, [fp, #-8]
d0020ae4:	e5d33000 	ldrb	r3, [r3]
d0020ae8:	e3530000 	cmp	r3, #0
d0020aec:	1afffff4 	bne	d0020ac4 <puts+0x1c>
d0020af0:	e3a0000a 	mov	r0, #10
d0020af4:	ebffffd2 	bl	d0020a44 <putchar>
d0020af8:	e24bd004 	sub	sp, fp, #4
d0020afc:	e8bd8800 	pop	{fp, pc}

d0020b00 <put_int>:
d0020b00:	e92d4810 	push	{r4, fp, lr}
d0020b04:	e28db008 	add	fp, sp, #8
d0020b08:	e24dd024 	sub	sp, sp, #36	; 0x24
d0020b0c:	e50b0028 	str	r0, [fp, #-40]	; 0x28
d0020b10:	e3a03000 	mov	r3, #0
d0020b14:	e54b301d 	strb	r3, [fp, #-29]
d0020b18:	e51b3028 	ldr	r3, [fp, #-40]	; 0x28
d0020b1c:	e3530000 	cmp	r3, #0
d0020b20:	1a00001f 	bne	d0020ba4 <put_int+0xa4>
d0020b24:	e3a00030 	mov	r0, #48	; 0x30
d0020b28:	ebffffc5 	bl	d0020a44 <putchar>
d0020b2c:	ea000035 	b	d0020c08 <put_int+0x108>
d0020b30:	e55b301d 	ldrb	r3, [fp, #-29]
d0020b34:	e6ef1073 	uxtb	r1, r3
d0020b38:	e1a0c001 	mov	ip, r1
d0020b3c:	e51b0028 	ldr	r0, [fp, #-40]	; 0x28
d0020b40:	e30c3ccd 	movw	r3, #52429	; 0xcccd
d0020b44:	e34c3ccc 	movt	r3, #52428	; 0xcccc
d0020b48:	e0832093 	umull	r2, r3, r3, r0
d0020b4c:	e1a021a3 	lsr	r2, r3, #3
d0020b50:	e1a03002 	mov	r3, r2
d0020b54:	e1a03103 	lsl	r3, r3, #2
d0020b58:	e0833002 	add	r3, r3, r2
d0020b5c:	e1a03083 	lsl	r3, r3, #1
d0020b60:	e0632000 	rsb	r2, r3, r0
d0020b64:	e6ef2072 	uxtb	r2, r2
d0020b68:	e3e0300f 	mvn	r3, #15
d0020b6c:	e24b400c 	sub	r4, fp, #12
d0020b70:	e084000c 	add	r0, r4, ip
d0020b74:	e0803003 	add	r3, r0, r3
d0020b78:	e5c32000 	strb	r2, [r3]
d0020b7c:	e2813001 	add	r3, r1, #1
d0020b80:	e6ef3073 	uxtb	r3, r3
d0020b84:	e54b301d 	strb	r3, [fp, #-29]
d0020b88:	e51b2028 	ldr	r2, [fp, #-40]	; 0x28
d0020b8c:	e30c3ccd 	movw	r3, #52429	; 0xcccd
d0020b90:	e34c3ccc 	movt	r3, #52428	; 0xcccc
d0020b94:	e0831293 	umull	r1, r3, r3, r2
d0020b98:	e1a031a3 	lsr	r3, r3, #3
d0020b9c:	e50b3028 	str	r3, [fp, #-40]	; 0x28
d0020ba0:	ea000000 	b	d0020ba8 <put_int+0xa8>
d0020ba4:	e1a00000 	nop			; (mov r0, r0)
d0020ba8:	e51b3028 	ldr	r3, [fp, #-40]	; 0x28
d0020bac:	e3530000 	cmp	r3, #0
d0020bb0:	1affffde 	bne	d0020b30 <put_int+0x30>
d0020bb4:	e55b301d 	ldrb	r3, [fp, #-29]
d0020bb8:	e6ef3073 	uxtb	r3, r3
d0020bbc:	e2433001 	sub	r3, r3, #1
d0020bc0:	e50b3010 	str	r3, [fp, #-16]
d0020bc4:	ea00000c 	b	d0020bfc <put_int+0xfc>
d0020bc8:	e51b2010 	ldr	r2, [fp, #-16]
d0020bcc:	e3e0300f 	mvn	r3, #15
d0020bd0:	e24b400c 	sub	r4, fp, #12
d0020bd4:	e0842002 	add	r2, r4, r2
d0020bd8:	e0823003 	add	r3, r2, r3
d0020bdc:	e5d33000 	ldrb	r3, [r3]
d0020be0:	e6ef3073 	uxtb	r3, r3
d0020be4:	e2833030 	add	r3, r3, #48	; 0x30
d0020be8:	e1a00003 	mov	r0, r3
d0020bec:	ebffff94 	bl	d0020a44 <putchar>
d0020bf0:	e51b3010 	ldr	r3, [fp, #-16]
d0020bf4:	e2433001 	sub	r3, r3, #1
d0020bf8:	e50b3010 	str	r3, [fp, #-16]
d0020bfc:	e51b3010 	ldr	r3, [fp, #-16]
d0020c00:	e3530000 	cmp	r3, #0
d0020c04:	aaffffef 	bge	d0020bc8 <put_int+0xc8>
d0020c08:	e24bd008 	sub	sp, fp, #8
d0020c0c:	e8bd8810 	pop	{r4, fp, pc}

d0020c10 <put_hex>:
d0020c10:	e92d4800 	push	{fp, lr}
d0020c14:	e28db004 	add	fp, sp, #4
d0020c18:	e24dd018 	sub	sp, sp, #24
d0020c1c:	e50b0018 	str	r0, [fp, #-24]
d0020c20:	e50b101c 	str	r1, [fp, #-28]
d0020c24:	e3013660 	movw	r3, #5728	; 0x1660
d0020c28:	e34d3002 	movt	r3, #53250	; 0xd002
d0020c2c:	e50b300c 	str	r3, [fp, #-12]
d0020c30:	e3013674 	movw	r3, #5748	; 0x1674
d0020c34:	e34d3002 	movt	r3, #53250	; 0xd002
d0020c38:	e50b3008 	str	r3, [fp, #-8]
d0020c3c:	e51b3018 	ldr	r3, [fp, #-24]
d0020c40:	e1a03223 	lsr	r3, r3, #4
d0020c44:	e6ef3073 	uxtb	r3, r3
d0020c48:	e54b300d 	strb	r3, [fp, #-13]
d0020c4c:	e51b3018 	ldr	r3, [fp, #-24]
d0020c50:	e6ef3073 	uxtb	r3, r3
d0020c54:	e203300f 	and	r3, r3, #15
d0020c58:	e54b300e 	strb	r3, [fp, #-14]
d0020c5c:	e51b301c 	ldr	r3, [fp, #-28]
d0020c60:	e3530000 	cmp	r3, #0
d0020c64:	0a00000e 	beq	d0020ca4 <put_hex+0x94>
d0020c68:	e55b300d 	ldrb	r3, [fp, #-13]
d0020c6c:	e6ef3073 	uxtb	r3, r3
d0020c70:	e51b200c 	ldr	r2, [fp, #-12]
d0020c74:	e0823003 	add	r3, r2, r3
d0020c78:	e5d33000 	ldrb	r3, [r3]
d0020c7c:	e1a00003 	mov	r0, r3
d0020c80:	ebffff6f 	bl	d0020a44 <putchar>
d0020c84:	e55b300e 	ldrb	r3, [fp, #-14]
d0020c88:	e6ef3073 	uxtb	r3, r3
d0020c8c:	e51b200c 	ldr	r2, [fp, #-12]
d0020c90:	e0823003 	add	r3, r2, r3
d0020c94:	e5d33000 	ldrb	r3, [r3]
d0020c98:	e1a00003 	mov	r0, r3
d0020c9c:	ebffff68 	bl	d0020a44 <putchar>
d0020ca0:	ea00000d 	b	d0020cdc <put_hex+0xcc>
d0020ca4:	e55b300d 	ldrb	r3, [fp, #-13]
d0020ca8:	e6ef3073 	uxtb	r3, r3
d0020cac:	e51b2008 	ldr	r2, [fp, #-8]
d0020cb0:	e0823003 	add	r3, r2, r3
d0020cb4:	e5d33000 	ldrb	r3, [r3]
d0020cb8:	e1a00003 	mov	r0, r3
d0020cbc:	ebffff60 	bl	d0020a44 <putchar>
d0020cc0:	e55b300e 	ldrb	r3, [fp, #-14]
d0020cc4:	e6ef3073 	uxtb	r3, r3
d0020cc8:	e51b2008 	ldr	r2, [fp, #-8]
d0020ccc:	e0823003 	add	r3, r2, r3
d0020cd0:	e5d33000 	ldrb	r3, [r3]
d0020cd4:	e1a00003 	mov	r0, r3
d0020cd8:	ebffff59 	bl	d0020a44 <putchar>
d0020cdc:	e24bd004 	sub	sp, fp, #4
d0020ce0:	e8bd8800 	pop	{fp, pc}

d0020ce4 <put_int_2_hex>:
d0020ce4:	e92d4800 	push	{fp, lr}
d0020ce8:	e28db004 	add	fp, sp, #4
d0020cec:	e24dd008 	sub	sp, sp, #8
d0020cf0:	e50b0008 	str	r0, [fp, #-8]
d0020cf4:	e1a03001 	mov	r3, r1
d0020cf8:	e54b3009 	strb	r3, [fp, #-9]
d0020cfc:	e51b3008 	ldr	r3, [fp, #-8]
d0020d00:	e1a03c23 	lsr	r3, r3, #24
d0020d04:	e3530000 	cmp	r3, #0
d0020d08:	0a00001e 	beq	d0020d88 <put_int_2_hex+0xa4>
d0020d0c:	e51b3008 	ldr	r3, [fp, #-8]
d0020d10:	e1a02c23 	lsr	r2, r3, #24
d0020d14:	e55b3009 	ldrb	r3, [fp, #-9]
d0020d18:	e6ef3073 	uxtb	r3, r3
d0020d1c:	e1a00002 	mov	r0, r2
d0020d20:	e1a01003 	mov	r1, r3
d0020d24:	ebffffb9 	bl	d0020c10 <put_hex>
d0020d28:	e51b3008 	ldr	r3, [fp, #-8]
d0020d2c:	e1a03823 	lsr	r3, r3, #16
d0020d30:	e20320ff 	and	r2, r3, #255	; 0xff
d0020d34:	e55b3009 	ldrb	r3, [fp, #-9]
d0020d38:	e6ef3073 	uxtb	r3, r3
d0020d3c:	e1a00002 	mov	r0, r2
d0020d40:	e1a01003 	mov	r1, r3
d0020d44:	ebffffb1 	bl	d0020c10 <put_hex>
d0020d48:	e51b3008 	ldr	r3, [fp, #-8]
d0020d4c:	e1a03423 	lsr	r3, r3, #8
d0020d50:	e20320ff 	and	r2, r3, #255	; 0xff
d0020d54:	e55b3009 	ldrb	r3, [fp, #-9]
d0020d58:	e6ef3073 	uxtb	r3, r3
d0020d5c:	e1a00002 	mov	r0, r2
d0020d60:	e1a01003 	mov	r1, r3
d0020d64:	ebffffa9 	bl	d0020c10 <put_hex>
d0020d68:	e51b3008 	ldr	r3, [fp, #-8]
d0020d6c:	e20320ff 	and	r2, r3, #255	; 0xff
d0020d70:	e55b3009 	ldrb	r3, [fp, #-9]
d0020d74:	e6ef3073 	uxtb	r3, r3
d0020d78:	e1a00002 	mov	r0, r2
d0020d7c:	e1a01003 	mov	r1, r3
d0020d80:	ebffffa2 	bl	d0020c10 <put_hex>
d0020d84:	ea000038 	b	d0020e6c <put_int_2_hex+0x188>
d0020d88:	e51b3008 	ldr	r3, [fp, #-8]
d0020d8c:	e1a03823 	lsr	r3, r3, #16
d0020d90:	e20330ff 	and	r3, r3, #255	; 0xff
d0020d94:	e3530000 	cmp	r3, #0
d0020d98:	0a000017 	beq	d0020dfc <put_int_2_hex+0x118>
d0020d9c:	e51b3008 	ldr	r3, [fp, #-8]
d0020da0:	e1a03823 	lsr	r3, r3, #16
d0020da4:	e20320ff 	and	r2, r3, #255	; 0xff
d0020da8:	e55b3009 	ldrb	r3, [fp, #-9]
d0020dac:	e6ef3073 	uxtb	r3, r3
d0020db0:	e1a00002 	mov	r0, r2
d0020db4:	e1a01003 	mov	r1, r3
d0020db8:	ebffff94 	bl	d0020c10 <put_hex>
d0020dbc:	e51b3008 	ldr	r3, [fp, #-8]
d0020dc0:	e1a03423 	lsr	r3, r3, #8
d0020dc4:	e20320ff 	and	r2, r3, #255	; 0xff
d0020dc8:	e55b3009 	ldrb	r3, [fp, #-9]
d0020dcc:	e6ef3073 	uxtb	r3, r3
d0020dd0:	e1a00002 	mov	r0, r2
d0020dd4:	e1a01003 	mov	r1, r3
d0020dd8:	ebffff8c 	bl	d0020c10 <put_hex>
d0020ddc:	e51b3008 	ldr	r3, [fp, #-8]
d0020de0:	e20320ff 	and	r2, r3, #255	; 0xff
d0020de4:	e55b3009 	ldrb	r3, [fp, #-9]
d0020de8:	e6ef3073 	uxtb	r3, r3
d0020dec:	e1a00002 	mov	r0, r2
d0020df0:	e1a01003 	mov	r1, r3
d0020df4:	ebffff85 	bl	d0020c10 <put_hex>
d0020df8:	ea00001b 	b	d0020e6c <put_int_2_hex+0x188>
d0020dfc:	e51b3008 	ldr	r3, [fp, #-8]
d0020e00:	e1a03423 	lsr	r3, r3, #8
d0020e04:	e20330ff 	and	r3, r3, #255	; 0xff
d0020e08:	e3530000 	cmp	r3, #0
d0020e0c:	0a00000f 	beq	d0020e50 <put_int_2_hex+0x16c>
d0020e10:	e51b3008 	ldr	r3, [fp, #-8]
d0020e14:	e1a03423 	lsr	r3, r3, #8
d0020e18:	e20320ff 	and	r2, r3, #255	; 0xff
d0020e1c:	e55b3009 	ldrb	r3, [fp, #-9]
d0020e20:	e6ef3073 	uxtb	r3, r3
d0020e24:	e1a00002 	mov	r0, r2
d0020e28:	e1a01003 	mov	r1, r3
d0020e2c:	ebffff77 	bl	d0020c10 <put_hex>
d0020e30:	e51b3008 	ldr	r3, [fp, #-8]
d0020e34:	e20320ff 	and	r2, r3, #255	; 0xff
d0020e38:	e55b3009 	ldrb	r3, [fp, #-9]
d0020e3c:	e6ef3073 	uxtb	r3, r3
d0020e40:	e1a00002 	mov	r0, r2
d0020e44:	e1a01003 	mov	r1, r3
d0020e48:	ebffff70 	bl	d0020c10 <put_hex>
d0020e4c:	ea000006 	b	d0020e6c <put_int_2_hex+0x188>
d0020e50:	e51b3008 	ldr	r3, [fp, #-8]
d0020e54:	e20320ff 	and	r2, r3, #255	; 0xff
d0020e58:	e55b3009 	ldrb	r3, [fp, #-9]
d0020e5c:	e6ef3073 	uxtb	r3, r3
d0020e60:	e1a00002 	mov	r0, r2
d0020e64:	e1a01003 	mov	r1, r3
d0020e68:	ebffff68 	bl	d0020c10 <put_hex>
d0020e6c:	e24bd004 	sub	sp, fp, #4
d0020e70:	e8bd8800 	pop	{fp, pc}

d0020e74 <printf>:
d0020e74:	e92d000f 	push	{r0, r1, r2, r3}
d0020e78:	e92d4800 	push	{fp, lr}
d0020e7c:	e28db004 	add	fp, sp, #4
d0020e80:	e24dd018 	sub	sp, sp, #24
d0020e84:	e28b3008 	add	r3, fp, #8
d0020e88:	e50b3010 	str	r3, [fp, #-16]
d0020e8c:	ea000062 	b	d002101c <printf+0x1a8>
d0020e90:	e3a03000 	mov	r3, #0
d0020e94:	e54b3015 	strb	r3, [fp, #-21]
d0020e98:	e59b3004 	ldr	r3, [fp, #4]
d0020e9c:	e5d33000 	ldrb	r3, [r3]
d0020ea0:	e54b3009 	strb	r3, [fp, #-9]
d0020ea4:	e59b3004 	ldr	r3, [fp, #4]
d0020ea8:	e2833001 	add	r3, r3, #1
d0020eac:	e58b3004 	str	r3, [fp, #4]
d0020eb0:	e55b3009 	ldrb	r3, [fp, #-9]
d0020eb4:	e3530025 	cmp	r3, #37	; 0x25
d0020eb8:	1a000052 	bne	d0021008 <printf+0x194>
d0020ebc:	e59b3004 	ldr	r3, [fp, #4]
d0020ec0:	e5d33000 	ldrb	r3, [r3]
d0020ec4:	e59b2004 	ldr	r2, [fp, #4]
d0020ec8:	e2822001 	add	r2, r2, #1
d0020ecc:	e58b2004 	str	r2, [fp, #4]
d0020ed0:	e2433058 	sub	r3, r3, #88	; 0x58
d0020ed4:	e3530020 	cmp	r3, #32
d0020ed8:	979ff103 	ldrls	pc, [pc, r3, lsl #2]
d0020edc:	ea00004d 	b	d0021018 <printf+0x1a4>
d0020ee0:	d0020fd8 	ldrdle	r0, [r2], -r8
d0020ee4:	d0021018 	andle	r1, r2, r8, lsl r0
d0020ee8:	d0021018 	andle	r1, r2, r8, lsl r0
d0020eec:	d0021018 	andle	r1, r2, r8, lsl r0
d0020ef0:	d0021018 	andle	r1, r2, r8, lsl r0
d0020ef4:	d0021018 	andle	r1, r2, r8, lsl r0
d0020ef8:	d0021018 	andle	r1, r2, r8, lsl r0
d0020efc:	d0021018 	andle	r1, r2, r8, lsl r0
d0020f00:	d0021018 	andle	r1, r2, r8, lsl r0
d0020f04:	d0021018 	andle	r1, r2, r8, lsl r0
d0020f08:	d0021018 	andle	r1, r2, r8, lsl r0
d0020f0c:	d0020f64 	andle	r0, r2, r4, ror #30
d0020f10:	d0020fa8 	andle	r0, r2, r8, lsr #31
d0020f14:	d0021018 	andle	r1, r2, r8, lsl r0
d0020f18:	d0021018 	andle	r1, r2, r8, lsl r0
d0020f1c:	d0021018 	andle	r1, r2, r8, lsl r0
d0020f20:	d0021018 	andle	r1, r2, r8, lsl r0
d0020f24:	d0021018 	andle	r1, r2, r8, lsl r0
d0020f28:	d0021018 	andle	r1, r2, r8, lsl r0
d0020f2c:	d0021018 	andle	r1, r2, r8, lsl r0
d0020f30:	d0021018 	andle	r1, r2, r8, lsl r0
d0020f34:	d0021018 	andle	r1, r2, r8, lsl r0
d0020f38:	d0021018 	andle	r1, r2, r8, lsl r0
d0020f3c:	d0021018 	andle	r1, r2, r8, lsl r0
d0020f40:	d0021018 	andle	r1, r2, r8, lsl r0
d0020f44:	d0021018 	andle	r1, r2, r8, lsl r0
d0020f48:	d0021018 	andle	r1, r2, r8, lsl r0
d0020f4c:	d0020f88 	andle	r0, r2, r8, lsl #31
d0020f50:	d0021018 	andle	r1, r2, r8, lsl r0
d0020f54:	d0020fa8 	andle	r0, r2, r8, lsr #31
d0020f58:	d0021018 	andle	r1, r2, r8, lsl r0
d0020f5c:	d0021018 	andle	r1, r2, r8, lsl r0
d0020f60:	d0020fd0 	ldrdle	r0, [r2], -r0
d0020f64:	e51b3010 	ldr	r3, [fp, #-16]
d0020f68:	e2832004 	add	r2, r3, #4
d0020f6c:	e50b2010 	str	r2, [fp, #-16]
d0020f70:	e5933000 	ldr	r3, [r3]
d0020f74:	e54b3009 	strb	r3, [fp, #-9]
d0020f78:	e55b3009 	ldrb	r3, [fp, #-9]
d0020f7c:	e1a00003 	mov	r0, r3
d0020f80:	ebfffeaf 	bl	d0020a44 <putchar>
d0020f84:	ea000024 	b	d002101c <printf+0x1a8>
d0020f88:	e51b3010 	ldr	r3, [fp, #-16]
d0020f8c:	e2832004 	add	r2, r3, #4
d0020f90:	e50b2010 	str	r2, [fp, #-16]
d0020f94:	e5933000 	ldr	r3, [r3]
d0020f98:	e50b3008 	str	r3, [fp, #-8]
d0020f9c:	e51b0008 	ldr	r0, [fp, #-8]
d0020fa0:	ebfffec0 	bl	d0020aa8 <puts>
d0020fa4:	ea00001c 	b	d002101c <printf+0x1a8>
d0020fa8:	e51b3010 	ldr	r3, [fp, #-16]
d0020fac:	e2832004 	add	r2, r3, #4
d0020fb0:	e50b2010 	str	r2, [fp, #-16]
d0020fb4:	e5933000 	ldr	r3, [r3]
d0020fb8:	e50b3014 	str	r3, [fp, #-20]
d0020fbc:	e51b3014 	ldr	r3, [fp, #-20]
d0020fc0:	e1a00003 	mov	r0, r3
d0020fc4:	ebfffecd 	bl	d0020b00 <put_int>
d0020fc8:	e1a00000 	nop			; (mov r0, r0)
d0020fcc:	ea000012 	b	d002101c <printf+0x1a8>
d0020fd0:	e3a03001 	mov	r3, #1
d0020fd4:	e54b3015 	strb	r3, [fp, #-21]
d0020fd8:	e51b3010 	ldr	r3, [fp, #-16]
d0020fdc:	e2832004 	add	r2, r3, #4
d0020fe0:	e50b2010 	str	r2, [fp, #-16]
d0020fe4:	e5933000 	ldr	r3, [r3]
d0020fe8:	e50b3014 	str	r3, [fp, #-20]
d0020fec:	e51b2014 	ldr	r2, [fp, #-20]
d0020ff0:	e55b3015 	ldrb	r3, [fp, #-21]
d0020ff4:	e6ef3073 	uxtb	r3, r3
d0020ff8:	e1a00002 	mov	r0, r2
d0020ffc:	e1a01003 	mov	r1, r3
d0021000:	ebffff37 	bl	d0020ce4 <put_int_2_hex>
d0021004:	ea000004 	b	d002101c <printf+0x1a8>
d0021008:	e55b3009 	ldrb	r3, [fp, #-9]
d002100c:	e1a00003 	mov	r0, r3
d0021010:	ebfffe8b 	bl	d0020a44 <putchar>
d0021014:	ea000000 	b	d002101c <printf+0x1a8>
d0021018:	e1a00000 	nop			; (mov r0, r0)
d002101c:	e59b3004 	ldr	r3, [fp, #4]
d0021020:	e5d33000 	ldrb	r3, [r3]
d0021024:	e3530000 	cmp	r3, #0
d0021028:	1affff98 	bne	d0020e90 <printf+0x1c>
d002102c:	e24bd004 	sub	sp, fp, #4
d0021030:	e8bd4800 	pop	{fp, lr}
d0021034:	e28dd010 	add	sp, sp, #16
d0021038:	e12fff1e 	bx	lr

d002103c <ddr_init>:
d002103c:	e52db004 	push	{fp}		; (str fp, [sp, #-4]!)
d0021040:	e28db000 	add	fp, sp, #0
d0021044:	e3a0220f 	mov	r2, #-268435456	; 0xf0000000
d0021048:	e3013000 	movw	r3, #4096	; 0x1000
d002104c:	e3403010 	movt	r3, #16
d0021050:	e5823018 	str	r3, [r2, #24]
d0021054:	e3a0220f 	mov	r2, #-268435456	; 0xf0000000
d0021058:	e3013002 	movw	r3, #4098	; 0x1002
d002105c:	e3403010 	movt	r3, #16
d0021060:	e5823018 	str	r3, [r2, #24]
d0021064:	e3a0320f 	mov	r3, #-268435456	; 0xf0000000
d0021068:	e3a02086 	mov	r2, #134	; 0x86
d002106c:	e583201c 	str	r2, [r3, #28]
d0021070:	e3a0220f 	mov	r2, #-268435456	; 0xf0000000
d0021074:	e3013003 	movw	r3, #4099	; 0x1003
d0021078:	e3403010 	movt	r3, #16
d002107c:	e5823018 	str	r3, [r2, #24]
d0021080:	e3a0320f 	mov	r3, #-268435456	; 0xf0000000
d0021084:	e5933040 	ldr	r3, [r3, #64]	; 0x40
d0021088:	e2033007 	and	r3, r3, #7
d002108c:	e3530007 	cmp	r3, #7
d0021090:	1afffffa 	bne	d0021080 <ddr_init+0x44>
d0021094:	e3a0220f 	mov	r2, #-268435456	; 0xf0000000
d0021098:	e3023350 	movw	r3, #9040	; 0x2350
d002109c:	e3403fff 	movt	r3, #4095	; 0xfff
d00210a0:	e5823000 	str	r3, [r2]
d00210a4:	e3a0220f 	mov	r2, #-268435456	; 0xf0000000
d00210a8:	e3023430 	movw	r3, #9264	; 0x2430
d00210ac:	e3403020 	movt	r3, #32
d00210b0:	e5823004 	str	r3, [r2, #4]
d00210b4:	e3a0220f 	mov	r2, #-268435456	; 0xf0000000
d00210b8:	e3013323 	movw	r3, #4899	; 0x1323
d00210bc:	e34230e0 	movt	r3, #8416	; 0x20e0
d00210c0:	e5823008 	str	r3, [r2, #8]
d00210c4:	e3a0320f 	mov	r3, #-268435456	; 0xf0000000
d00210c8:	e3a024ff 	mov	r2, #-16777216	; 0xff000000
d00210cc:	e5832014 	str	r2, [r3, #20]
d00210d0:	e3a0320f 	mov	r3, #-268435456	; 0xf0000000
d00210d4:	e3e02cff 	mvn	r2, #65280	; 0xff00
d00210d8:	e5832028 	str	r2, [r3, #40]	; 0x28
d00210dc:	e3a0320f 	mov	r3, #-268435456	; 0xf0000000
d00210e0:	e3002618 	movw	r2, #1560	; 0x618
d00210e4:	e5832030 	str	r2, [r3, #48]	; 0x30
d00210e8:	e3a0220f 	mov	r2, #-268435456	; 0xf0000000
d00210ec:	e3033309 	movw	r3, #13065	; 0x3309
d00210f0:	e3413923 	movt	r3, #6435	; 0x1923
d00210f4:	e5823034 	str	r3, [r2, #52]	; 0x34
d00210f8:	e3a0220f 	mov	r2, #-268435456	; 0xf0000000
d00210fc:	e3003204 	movw	r3, #516	; 0x204
d0021100:	e3423324 	movt	r3, #8996	; 0x2324
d0021104:	e5823038 	str	r3, [r2, #56]	; 0x38
d0021108:	e3a0220f 	mov	r2, #-268435456	; 0xf0000000
d002110c:	e3003232 	movw	r3, #562	; 0x232
d0021110:	e34039c8 	movt	r3, #2504	; 0x9c8
d0021114:	e582303c 	str	r3, [r2, #60]	; 0x3c
d0021118:	e3a0320f 	mov	r3, #-268435456	; 0xf0000000
d002111c:	e3a02407 	mov	r2, #117440512	; 0x7000000
d0021120:	e5832010 	str	r2, [r3, #16]
d0021124:	e3a0320f 	mov	r3, #-268435456	; 0xf0000000
d0021128:	e3a02401 	mov	r2, #16777216	; 0x1000000
d002112c:	e5832010 	str	r2, [r3, #16]
d0021130:	e3a0320f 	mov	r3, #-268435456	; 0xf0000000
d0021134:	e3a02802 	mov	r2, #131072	; 0x20000
d0021138:	e5832010 	str	r2, [r3, #16]
d002113c:	e3a0320f 	mov	r3, #-268435456	; 0xf0000000
d0021140:	e3a02803 	mov	r2, #196608	; 0x30000
d0021144:	e5832010 	str	r2, [r3, #16]
d0021148:	e3a0320f 	mov	r3, #-268435456	; 0xf0000000
d002114c:	e3a02b41 	mov	r2, #66560	; 0x10400
d0021150:	e5832010 	str	r2, [r3, #16]
d0021154:	e3a0320f 	mov	r3, #-268435456	; 0xf0000000
d0021158:	e3002542 	movw	r2, #1346	; 0x542
d002115c:	e5832010 	str	r2, [r3, #16]
d0021160:	e3a0320f 	mov	r3, #-268435456	; 0xf0000000
d0021164:	e3a02401 	mov	r2, #16777216	; 0x1000000
d0021168:	e5832010 	str	r2, [r3, #16]
d002116c:	e3a0320f 	mov	r3, #-268435456	; 0xf0000000
d0021170:	e3a02405 	mov	r2, #83886080	; 0x5000000
d0021174:	e5832010 	str	r2, [r3, #16]
d0021178:	e3a0320f 	mov	r3, #-268435456	; 0xf0000000
d002117c:	e3a02405 	mov	r2, #83886080	; 0x5000000
d0021180:	e5832010 	str	r2, [r3, #16]
d0021184:	e3a0320f 	mov	r3, #-268435456	; 0xf0000000
d0021188:	e3002442 	movw	r2, #1090	; 0x442
d002118c:	e5832010 	str	r2, [r3, #16]
d0021190:	e3a0220f 	mov	r2, #-268435456	; 0xf0000000
d0021194:	e3003780 	movw	r3, #1920	; 0x780
d0021198:	e3403001 	movt	r3, #1
d002119c:	e5823010 	str	r3, [r2, #16]
d00211a0:	e3a0320f 	mov	r3, #-268435456	; 0xf0000000
d00211a4:	e3a02b41 	mov	r2, #66560	; 0x10400
d00211a8:	e5832010 	str	r2, [r3, #16]
d00211ac:	e3a0220f 	mov	r2, #-268435456	; 0xf0000000
d00211b0:	e3023030 	movw	r3, #8240	; 0x2030
d00211b4:	e3403ff0 	movt	r3, #4080	; 0xff0
d00211b8:	e5823000 	str	r3, [r2]
d00211bc:	e3a0320f 	mov	r3, #-268435456	; 0xf0000000
d00211c0:	e3e02cff 	mvn	r2, #65280	; 0xff00
d00211c4:	e5832028 	str	r2, [r3, #40]	; 0x28
d00211c8:	e3a0220f 	mov	r2, #-268435456	; 0xf0000000
d00211cc:	e3023400 	movw	r3, #9216	; 0x2400
d00211d0:	e3403020 	movt	r3, #32
d00211d4:	e5823004 	str	r3, [r2, #4]
d00211d8:	e3003000 	movw	r3, #0
d00211dc:	e34f3140 	movt	r3, #61760	; 0xf140
d00211e0:	e3012000 	movw	r2, #4096	; 0x1000
d00211e4:	e3402010 	movt	r2, #16
d00211e8:	e5832018 	str	r2, [r3, #24]
d00211ec:	e3003000 	movw	r3, #0
d00211f0:	e34f3140 	movt	r3, #61760	; 0xf140
d00211f4:	e3012002 	movw	r2, #4098	; 0x1002
d00211f8:	e3402010 	movt	r2, #16
d00211fc:	e5832018 	str	r2, [r3, #24]
d0021200:	e3003000 	movw	r3, #0
d0021204:	e34f3140 	movt	r3, #61760	; 0xf140
d0021208:	e3a02086 	mov	r2, #134	; 0x86
d002120c:	e583201c 	str	r2, [r3, #28]
d0021210:	e3003000 	movw	r3, #0
d0021214:	e34f3140 	movt	r3, #61760	; 0xf140
d0021218:	e3012003 	movw	r2, #4099	; 0x1003
d002121c:	e3402010 	movt	r2, #16
d0021220:	e5832018 	str	r2, [r3, #24]
d0021224:	e3a0320f 	mov	r3, #-268435456	; 0xf0000000
d0021228:	e5933040 	ldr	r3, [r3, #64]	; 0x40
d002122c:	e2033007 	and	r3, r3, #7
d0021230:	e3530007 	cmp	r3, #7
d0021234:	1afffffa 	bne	d0021224 <ddr_init+0x1e8>
d0021238:	e3003000 	movw	r3, #0
d002123c:	e34f3140 	movt	r3, #61760	; 0xf140
d0021240:	e3022350 	movw	r2, #9040	; 0x2350
d0021244:	e3402fff 	movt	r2, #4095	; 0xfff
d0021248:	e5832000 	str	r2, [r3]
d002124c:	e3003000 	movw	r3, #0
d0021250:	e34f3140 	movt	r3, #61760	; 0xf140
d0021254:	e3022430 	movw	r2, #9264	; 0x2430
d0021258:	e3402020 	movt	r2, #32
d002125c:	e5832004 	str	r2, [r3, #4]
d0021260:	e3003000 	movw	r3, #0
d0021264:	e34f3140 	movt	r3, #61760	; 0xf140
d0021268:	e3012323 	movw	r2, #4899	; 0x1323
d002126c:	e34420e0 	movt	r2, #16608	; 0x40e0
d0021270:	e5832008 	str	r2, [r3, #8]
d0021274:	e3003000 	movw	r3, #0
d0021278:	e34f3140 	movt	r3, #61760	; 0xf140
d002127c:	e3a024ff 	mov	r2, #-16777216	; 0xff000000
d0021280:	e5832014 	str	r2, [r3, #20]
d0021284:	e3003000 	movw	r3, #0
d0021288:	e34f3140 	movt	r3, #61760	; 0xf140
d002128c:	e3e02cff 	mvn	r2, #65280	; 0xff00
d0021290:	e5832028 	str	r2, [r3, #40]	; 0x28
d0021294:	e3003000 	movw	r3, #0
d0021298:	e34f3140 	movt	r3, #61760	; 0xf140
d002129c:	e3002618 	movw	r2, #1560	; 0x618
d00212a0:	e5832030 	str	r2, [r3, #48]	; 0x30
d00212a4:	e3003000 	movw	r3, #0
d00212a8:	e34f3140 	movt	r3, #61760	; 0xf140
d00212ac:	e3032309 	movw	r2, #13065	; 0x3309
d00212b0:	e3412923 	movt	r2, #6435	; 0x1923
d00212b4:	e5832034 	str	r2, [r3, #52]	; 0x34
d00212b8:	e3003000 	movw	r3, #0
d00212bc:	e34f3140 	movt	r3, #61760	; 0xf140
d00212c0:	e3002204 	movw	r2, #516	; 0x204
d00212c4:	e3422324 	movt	r2, #8996	; 0x2324
d00212c8:	e5832038 	str	r2, [r3, #56]	; 0x38
d00212cc:	e3003000 	movw	r3, #0
d00212d0:	e34f3140 	movt	r3, #61760	; 0xf140
d00212d4:	e3002232 	movw	r2, #562	; 0x232
d00212d8:	e34029c8 	movt	r2, #2504	; 0x9c8
d00212dc:	e583203c 	str	r2, [r3, #60]	; 0x3c
d00212e0:	e3003000 	movw	r3, #0
d00212e4:	e34f3140 	movt	r3, #61760	; 0xf140
d00212e8:	e3a02407 	mov	r2, #117440512	; 0x7000000
d00212ec:	e5832010 	str	r2, [r3, #16]
d00212f0:	e3003000 	movw	r3, #0
d00212f4:	e34f3140 	movt	r3, #61760	; 0xf140
d00212f8:	e3a02401 	mov	r2, #16777216	; 0x1000000
d00212fc:	e5832010 	str	r2, [r3, #16]
d0021300:	e3003000 	movw	r3, #0
d0021304:	e34f3140 	movt	r3, #61760	; 0xf140
d0021308:	e3a02802 	mov	r2, #131072	; 0x20000
d002130c:	e5832010 	str	r2, [r3, #16]
d0021310:	e3003000 	movw	r3, #0
d0021314:	e34f3140 	movt	r3, #61760	; 0xf140
d0021318:	e3a02803 	mov	r2, #196608	; 0x30000
d002131c:	e5832010 	str	r2, [r3, #16]
d0021320:	e3003000 	movw	r3, #0
d0021324:	e34f3140 	movt	r3, #61760	; 0xf140
d0021328:	e3a02b41 	mov	r2, #66560	; 0x10400
d002132c:	e5832010 	str	r2, [r3, #16]
d0021330:	e3003000 	movw	r3, #0
d0021334:	e34f3140 	movt	r3, #61760	; 0xf140
d0021338:	e3002542 	movw	r2, #1346	; 0x542
d002133c:	e5832010 	str	r2, [r3, #16]
d0021340:	e3003000 	movw	r3, #0
d0021344:	e34f3140 	movt	r3, #61760	; 0xf140
d0021348:	e3a02401 	mov	r2, #16777216	; 0x1000000
d002134c:	e5832010 	str	r2, [r3, #16]
d0021350:	e3003000 	movw	r3, #0
d0021354:	e34f3140 	movt	r3, #61760	; 0xf140
d0021358:	e3a02405 	mov	r2, #83886080	; 0x5000000
d002135c:	e5832010 	str	r2, [r3, #16]
d0021360:	e3003000 	movw	r3, #0
d0021364:	e34f3140 	movt	r3, #61760	; 0xf140
d0021368:	e3a02405 	mov	r2, #83886080	; 0x5000000
d002136c:	e5832010 	str	r2, [r3, #16]
d0021370:	e3003000 	movw	r3, #0
d0021374:	e34f3140 	movt	r3, #61760	; 0xf140
d0021378:	e3002442 	movw	r2, #1090	; 0x442
d002137c:	e5832010 	str	r2, [r3, #16]
d0021380:	e3003000 	movw	r3, #0
d0021384:	e34f3140 	movt	r3, #61760	; 0xf140
d0021388:	e3002780 	movw	r2, #1920	; 0x780
d002138c:	e3402001 	movt	r2, #1
d0021390:	e5832010 	str	r2, [r3, #16]
d0021394:	e3003000 	movw	r3, #0
d0021398:	e34f3140 	movt	r3, #61760	; 0xf140
d002139c:	e3a02b41 	mov	r2, #66560	; 0x10400
d00213a0:	e5832010 	str	r2, [r3, #16]
d00213a4:	e3003000 	movw	r3, #0
d00213a8:	e34f3140 	movt	r3, #61760	; 0xf140
d00213ac:	e3022030 	movw	r2, #8240	; 0x2030
d00213b0:	e3402ff0 	movt	r2, #4080	; 0xff0
d00213b4:	e5832000 	str	r2, [r3]
d00213b8:	e3003000 	movw	r3, #0
d00213bc:	e34f3140 	movt	r3, #61760	; 0xf140
d00213c0:	e3e02cff 	mvn	r2, #65280	; 0xff00
d00213c4:	e5832028 	str	r2, [r3, #40]	; 0x28
d00213c8:	e3003000 	movw	r3, #0
d00213cc:	e34f3140 	movt	r3, #61760	; 0xf140
d00213d0:	e3022400 	movw	r2, #9216	; 0x2400
d00213d4:	e3402020 	movt	r2, #32
d00213d8:	e5832004 	str	r2, [r3, #4]
d00213dc:	e28bd000 	add	sp, fp, #0
d00213e0:	e8bd0800 	pop	{fp}
d00213e4:	e12fff1e 	bx	lr

d00213e8 <copy_dat_to_sd>:
d00213e8:	e92d4800 	push	{fp, lr}
d00213ec:	e28db004 	add	fp, sp, #4
d00213f0:	e24dd028 	sub	sp, sp, #40	; 0x28
d00213f4:	e50b0018 	str	r0, [fp, #-24]
d00213f8:	e50b101c 	str	r1, [fp, #-28]
d00213fc:	e50b2020 	str	r2, [fp, #-32]
d0021400:	e3073488 	movw	r3, #29832	; 0x7488
d0021404:	e34d3003 	movt	r3, #53251	; 0xd003
d0021408:	e5933000 	ldr	r3, [r3]
d002140c:	e50b300c 	str	r3, [fp, #-12]
d0021410:	e3073f98 	movw	r3, #32664	; 0x7f98
d0021414:	e34d3003 	movt	r3, #53251	; 0xd003
d0021418:	e5933000 	ldr	r3, [r3]
d002141c:	e50b3008 	str	r3, [fp, #-8]
d0021420:	e51b300c 	ldr	r3, [fp, #-12]
d0021424:	e35304eb 	cmp	r3, #-352321536	; 0xeb000000
d0021428:	1a000002 	bne	d0021438 <copy_dat_to_sd+0x50>
d002142c:	e3a03000 	mov	r3, #0
d0021430:	e54b300d 	strb	r3, [fp, #-13]
d0021434:	ea000006 	b	d0021454 <copy_dat_to_sd+0x6c>
d0021438:	e51b200c 	ldr	r2, [fp, #-12]
d002143c:	e3003000 	movw	r3, #0
d0021440:	e34e3b20 	movt	r3, #60192	; 0xeb20
d0021444:	e1520003 	cmp	r2, r3
d0021448:	1a000001 	bne	d0021454 <copy_dat_to_sd+0x6c>
d002144c:	e3a03002 	mov	r3, #2
d0021450:	e54b300d 	strb	r3, [fp, #-13]
d0021454:	e55b300d 	ldrb	r3, [fp, #-13]
d0021458:	e6ef3073 	uxtb	r3, r3
d002145c:	e1a00003 	mov	r0, r3
d0021460:	e51b1018 	ldr	r1, [fp, #-24]
d0021464:	e51b301c 	ldr	r3, [fp, #-28]
d0021468:	e6ff2073 	uxth	r2, r3
d002146c:	e51b3020 	ldr	r3, [fp, #-32]
d0021470:	e3a0c000 	mov	ip, #0
d0021474:	e58dc000 	str	ip, [sp]
d0021478:	e51bc008 	ldr	ip, [fp, #-8]
d002147c:	e12fff3c 	blx	ip
d0021480:	e24bd004 	sub	sp, fp, #4
d0021484:	e8bd8800 	pop	{fp, pc}

d0021488 <main>:
d0021488:	e92d4800 	push	{fp, lr}
d002148c:	e28db004 	add	fp, sp, #4
d0021490:	e3010688 	movw	r0, #5768	; 0x1688
d0021494:	e34d0002 	movt	r0, #53250	; 0xd002
d0021498:	ebfffd82 	bl	d0020aa8 <puts>
d002149c:	e30106b4 	movw	r0, #5812	; 0x16b4
d00214a0:	e34d0002 	movt	r0, #53250	; 0xd002
d00214a4:	ebfffd7f 	bl	d0020aa8 <puts>
d00214a8:	e3a00014 	mov	r0, #20
d00214ac:	e3a0100a 	mov	r1, #10
d00214b0:	e3a02202 	mov	r2, #536870912	; 0x20000000
d00214b4:	ebffffcb 	bl	d00213e8 <copy_dat_to_sd>
d00214b8:	e3a03000 	mov	r3, #0
d00214bc:	e1a00003 	mov	r0, r3
d00214c0:	e8bd8800 	pop	{fp, pc}

d00214c4 <__aeabi_uidiv>:
d00214c4:	e2512001 	subs	r2, r1, #1
d00214c8:	012fff1e 	bxeq	lr
d00214cc:	3a000023 	bcc	d0021560 <__aeabi_uidiv+0x9c>
d00214d0:	e1500001 	cmp	r0, r1
d00214d4:	9a00001a 	bls	d0021544 <__aeabi_uidiv+0x80>
d00214d8:	e1110002 	tst	r1, r2
d00214dc:	0a00001b 	beq	d0021550 <__aeabi_uidiv+0x8c>
d00214e0:	e16f3f11 	clz	r3, r1
d00214e4:	e16f2f10 	clz	r2, r0
d00214e8:	e0432002 	sub	r2, r3, r2
d00214ec:	e3a03001 	mov	r3, #1
d00214f0:	e1a01211 	lsl	r1, r1, r2
d00214f4:	e1a03213 	lsl	r3, r3, r2
d00214f8:	e3a02000 	mov	r2, #0
d00214fc:	e1500001 	cmp	r0, r1
d0021500:	20400001 	subcs	r0, r0, r1
d0021504:	21822003 	orrcs	r2, r2, r3
d0021508:	e15000a1 	cmp	r0, r1, lsr #1
d002150c:	204000a1 	subcs	r0, r0, r1, lsr #1
d0021510:	218220a3 	orrcs	r2, r2, r3, lsr #1
d0021514:	e1500121 	cmp	r0, r1, lsr #2
d0021518:	20400121 	subcs	r0, r0, r1, lsr #2
d002151c:	21822123 	orrcs	r2, r2, r3, lsr #2
d0021520:	e15001a1 	cmp	r0, r1, lsr #3
d0021524:	204001a1 	subcs	r0, r0, r1, lsr #3
d0021528:	218221a3 	orrcs	r2, r2, r3, lsr #3
d002152c:	e3500000 	cmp	r0, #0
d0021530:	11b03223 	lsrsne	r3, r3, #4
d0021534:	11a01221 	lsrne	r1, r1, #4
d0021538:	1affffef 	bne	d00214fc <__aeabi_uidiv+0x38>
d002153c:	e1a00002 	mov	r0, r2
d0021540:	e12fff1e 	bx	lr
d0021544:	03a00001 	moveq	r0, #1
d0021548:	13a00000 	movne	r0, #0
d002154c:	e12fff1e 	bx	lr
d0021550:	e16f2f11 	clz	r2, r1
d0021554:	e262201f 	rsb	r2, r2, #31
d0021558:	e1a00230 	lsr	r0, r0, r2
d002155c:	e12fff1e 	bx	lr
d0021560:	e52de008 	str	lr, [sp, #-8]!
d0021564:	eb000007 	bl	d0021588 <__div0>
d0021568:	e3a00000 	mov	r0, #0
d002156c:	e49df008 	ldr	pc, [sp], #8

d0021570 <__aeabi_uidivmod>:
d0021570:	e92d4003 	push	{r0, r1, lr}
d0021574:	ebffffd2 	bl	d00214c4 <__aeabi_uidiv>
d0021578:	e8bd4006 	pop	{r1, r2, lr}
d002157c:	e0030092 	mul	r3, r2, r0
d0021580:	e0411003 	sub	r1, r1, r3
d0021584:	e12fff1e 	bx	lr

d0021588 <__div0>:
d0021588:	e92d4002 	push	{r1, lr}
d002158c:	e3a00008 	mov	r0, #8
d0021590:	ebfffb16 	bl	d00201f0 <raise>
d0021594:	e8bd8002 	pop	{r1, pc}

Disassembly of section .rodata:

d0021598 <.LC0>:
d0021598:	434d5241 	movtmi	r5, #53825	; 0xd241
d002159c:	09204b4c 	stmdbeq	r0!, {r2, r3, r6, r8, r9, fp, lr}
d00215a0:	25203d09 	strcs	r3, [r0, #-3337]!	; 0xd09
d00215a4:	484d2064 	stmdami	sp, {r2, r5, r6, sp}^
d00215a8:	00000a7a 	andeq	r0, r0, sl, ror sl

d00215ac <.LC1>:
d00215ac:	4b4c4353 	blmi	d1332300 <__bss_end__+0x1308c20>
d00215b0:	204d3241 	subcs	r3, sp, r1, asr #4
d00215b4:	25203d09 	strcs	r3, [r0, #-3337]!	; 0xd09
d00215b8:	484d2064 	stmdami	sp, {r2, r5, r6, sp}^
d00215bc:	00000a7a 	andeq	r0, r0, sl, ror sl

d00215c0 <.LC2>:
d00215c0:	4b4c4348 	blmi	d13322e8 <__bss_end__+0x1308c08>
d00215c4:	59534d5f 	ldmdbpl	r3, {r0, r1, r2, r3, r4, r6, r8, sl, fp, lr}^
d00215c8:	3d092053 	stccc	0, cr2, [r9, #-332]	; 0xfffffeb4
d00215cc:	20642520 	rsbcs	r2, r4, r0, lsr #10
d00215d0:	0a7a484d 	beq	d1eb370c <__bss_end__+0x1e8a02c>
d00215d4:	00000000 	andeq	r0, r0, r0

d00215d8 <.LC3>:
d00215d8:	4b4c4350 	blmi	d1332320 <__bss_end__+0x1308c40>
d00215dc:	59534d5f 	ldmdbpl	r3, {r0, r1, r2, r3, r4, r6, r8, sl, fp, lr}^
d00215e0:	3d092053 	stccc	0, cr2, [r9, #-332]	; 0xfffffeb4
d00215e4:	20642520 	rsbcs	r2, r4, r0, lsr #10
d00215e8:	0a7a484d 	beq	d1eb3724 <__bss_end__+0x1e8a044>
d00215ec:	00000000 	andeq	r0, r0, r0

d00215f0 <.LC4>:
d00215f0:	4b4c4348 	blmi	d1332318 <__bss_end__+0x1308c38>
d00215f4:	5953445f 	ldmdbpl	r3, {r0, r1, r2, r3, r4, r6, sl, lr}^
d00215f8:	3d092053 	stccc	0, cr2, [r9, #-332]	; 0xfffffeb4
d00215fc:	20642520 	rsbcs	r2, r4, r0, lsr #10
d0021600:	0a7a484d 	beq	d1eb373c <__bss_end__+0x1e8a05c>
d0021604:	00000000 	andeq	r0, r0, r0

d0021608 <.LC5>:
d0021608:	4b4c4350 	blmi	d1332350 <__bss_end__+0x1308c70>
d002160c:	5953445f 	ldmdbpl	r3, {r0, r1, r2, r3, r4, r6, sl, lr}^
d0021610:	3d092053 	stccc	0, cr2, [r9, #-332]	; 0xfffffeb4
d0021614:	20642520 	rsbcs	r2, r4, r0, lsr #10
d0021618:	0a7a484d 	beq	d1eb3754 <__bss_end__+0x1e8a074>
d002161c:	00000000 	andeq	r0, r0, r0

d0021620 <.LC6>:
d0021620:	4b4c4348 	blmi	d1332348 <__bss_end__+0x1308c68>
d0021624:	5953505f 	ldmdbpl	r3, {r0, r1, r2, r3, r4, r6, ip, lr}^
d0021628:	203d0953 	eorscs	r0, sp, r3, asr r9
d002162c:	4d206425 	cfstrsmi	mvf6, [r0, #-148]!	; 0xffffff6c
d0021630:	000a7a48 	andeq	r7, sl, r8, asr #20

d0021634 <.LC7>:
d0021634:	4b4c4350 	blmi	d133237c <__bss_end__+0x1308c9c>
d0021638:	5953505f 	ldmdbpl	r3, {r0, r1, r2, r3, r4, r6, ip, lr}^
d002163c:	3d092053 	stccc	0, cr2, [r9, #-332]	; 0xfffffeb4
d0021640:	20642520 	rsbcs	r2, r4, r0, lsr #10
d0021644:	0a7a484d 	beq	d1eb3780 <__bss_end__+0x1e8a0a0>
d0021648:	00000000 	andeq	r0, r0, r0

d002164c <.LC8>:
d002164c:	4b4c4353 	blmi	d13323a0 <__bss_end__+0x1308cc0>
d0021650:	4c4c5045 	mcrrmi	0, 4, r5, ip, cr5
d0021654:	203d0920 	eorscs	r0, sp, r0, lsr #18
d0021658:	4d206425 	cfstrsmi	mvf6, [r0, #-148]!	; 0xffffff6c
d002165c:	000a7a48 	andeq	r7, sl, r8, asr #20

d0021660 <.LC0>:
d0021660:	33323130 	teqcc	r2, #12
d0021664:	37363534 	undefined instruction 0x37363534
d0021668:	62613938 	rsbvs	r3, r1, #917504	; 0xe0000
d002166c:	66656463 	strbtvs	r6, [r5], -r3, ror #8
d0021670:	00000000 	andeq	r0, r0, r0

d0021674 <.LC1>:
d0021674:	33323130 	teqcc	r2, #12
d0021678:	37363534 	undefined instruction 0x37363534
d002167c:	42413938 	submi	r3, r1, #917504	; 0xe0000
d0021680:	46454443 	strbmi	r4, [r5], -r3, asr #8
d0021684:	00000000 	andeq	r0, r0, r0

d0021688 <.LC0>:
d0021688:	2323230a 	teqcs	r3, #671088640	; 0x28000000
d002168c:	20202323 	eorcs	r2, r0, r3, lsr #6
d0021690:	20202020 	eorcs	r2, r0, r0, lsr #32
d0021694:	6e755220 	cdpvs	2, 7, cr5, cr5, cr0, {1}
d0021698:	676e696e 	strbvs	r6, [lr, -lr, ror #18]!
d002169c:	206e6920 	rsbcs	r6, lr, r0, lsr #18
d00216a0:	20314c42 	eorscs	r4, r1, r2, asr #24
d00216a4:	20202020 	eorcs	r2, r0, r0, lsr #32
d00216a8:	20202020 	eorcs	r2, r0, r0, lsr #32
d00216ac:	23232320 	teqcs	r3, #-2147483648	; 0x80000000
d00216b0:	00002323 	andeq	r2, r0, r3, lsr #6

d00216b4 <.LC1>:
d00216b4:	2323230a 	teqcs	r3, #671088640	; 0x28000000
d00216b8:	20202323 	eorcs	r2, r0, r3, lsr #6
d00216bc:	20202020 	eorcs	r2, r0, r0, lsr #32
d00216c0:	6e755220 	cdpvs	2, 7, cr5, cr5, cr0, {1}
d00216c4:	676e696e 	strbvs	r6, [lr, -lr, ror #18]!
d00216c8:	20746120 	rsbscs	r6, r4, r0, lsr #2
d00216cc:	4d415253 	sfmmi	f5, 2, [r1, #-332]	; (stclmi 2, cr5, [r1, #-332])	; 0xfffffeb4
d00216d0:	20202020 	eorcs	r2, r0, r0, lsr #32
d00216d4:	20202020 	eorcs	r2, r0, r0, lsr #32
d00216d8:	23232320 	teqcs	r3, #-2147483648	; 0x80000000
d00216dc:	00002323 	andeq	r2, r0, r3, lsr #6

Disassembly of section .ARM.attributes:

00000000 <.ARM.attributes>:
   0:	00002e41 	andeq	r2, r0, r1, asr #28
   4:	61656100 	cmnvs	r5, r0, lsl #2
   8:	01006962 	tsteq	r0, r2, ror #18
   c:	00000024 	andeq	r0, r0, r4, lsr #32
  10:	412d3705 	teqmi	sp, r5, lsl #14
  14:	070a0600 	streq	r0, [sl, -r0, lsl #12]
  18:	09010841 	stmdbeq	r1, {r0, r6, fp}
  1c:	0c030a02 	stceq	10, cr0, [r3], {2}
  20:	14041201 	strne	r1, [r4], #-513	; 0x201
  24:	17011501 	strne	r1, [r1, -r1, lsl #10]
  28:	1a011803 	bne	4603c <_start-0xcffd9fd4>
  2c:	Address 0x0000002c is out of bounds.


Disassembly of section .comment:

00000000 <.comment>:
   0:	3a434347 	bcc	10d0d24 <_start-0xcef4f2ec>
   4:	6f662820 	svcvs	0x00662820
   8:	51542072 	cmppl	r4, r2, ror r0
   c:	20303132 	eorscs	r3, r0, r2, lsr r1
  10:	65626d45 	strbvs	r6, [r2, #-3397]!	; 0xd45
  14:	796b5364 	stmdbvc	fp!, {r2, r5, r6, r8, r9, ip, lr}^
  18:	63655420 	cmnvs	r5, #536870912	; 0x20000000
  1c:	34202968 	strtcc	r2, [r0], #-2408	; 0x968
  20:	362e342e 	strtcc	r3, [lr], -lr, lsr #8
	...

Disassembly of section .debug_aranges:

00000000 <.debug_aranges>:
   0:	0000001c 	andeq	r0, r0, ip, lsl r0
   4:	00000002 	andeq	r0, r0, r2
   8:	00040000 	andeq	r0, r4, r0
   c:	00000000 	andeq	r0, r0, r0
  10:	d00214c4 	andle	r1, r2, r4, asr #9
  14:	000000c4 	andeq	r0, r0, r4, asr #1
	...
  20:	0000001c 	andeq	r0, r0, ip, lsl r0
  24:	00f50002 	rscseq	r0, r5, r2
  28:	00040000 	andeq	r0, r4, r0
  2c:	00000000 	andeq	r0, r0, r0
  30:	d0021588 	andle	r1, r2, r8, lsl #11
  34:	00000010 	andeq	r0, r0, r0, lsl r0
	...

Disassembly of section .debug_info:

00000000 <.debug_info>:
   0:	000000f1 	strdeq	r0, [r0], -r1
   4:	00000002 	andeq	r0, r0, r2
   8:	01040000 	tsteq	r4, r0
   c:	00000000 	andeq	r0, r0, r0
  10:	d00214c4 	andle	r1, r2, r4, asr #9
  14:	d0021588 	andle	r1, r2, r8, lsl #11
  18:	74706f2f 	ldrbtvc	r6, [r0], #-3887	; 0xf2f
  1c:	626d452f 	rsbvs	r4, sp, #197132288	; 0xbc00000
  20:	6b536465 	blvs	14d91bc <_start-0xceb46e54>
  24:	75622f79 	strbvc	r2, [r2, #-3961]!	; 0xf79
  28:	2d646c69 	stclcs	12, cr6, [r4, #-420]!	; 0xfffffe5c
  2c:	6f6f7263 	svcvs	0x006f7263
  30:	6f6f7473 	svcvs	0x006f7473
  34:	2e2f736c 	cdpcs	3, 2, cr7, cr15, cr12, {3}
  38:	6c697562 	cfstr64vs	mvdx7, [r9], #-392	; 0xfffffe78
  3c:	72732f64 	rsbsvc	r2, r3, #400	; 0x190
  40:	63672f63 	cmnvs	r7, #396	; 0x18c
  44:	2e342d63 	cdpcs	13, 3, cr2, cr4, cr3, {3}
  48:	2f362e34 	svccs	0x00362e34
  4c:	6762696c 	strbvs	r6, [r2, -ip, ror #18]!
  50:	2e2f6363 	cdpcs	3, 2, cr6, cr15, cr3, {3}
  54:	63672f2e 	cmnvs	r7, #184	; 0xb8
  58:	6f632f63 	svcvs	0x00632f63
  5c:	6769666e 	strbvs	r6, [r9, -lr, ror #12]!
  60:	6d72612f 	ldfvse	f6, [r2, #-188]!	; 0xffffff44
  64:	62696c2f 	rsbvs	r6, r9, #12032	; 0x2f00
  68:	6e756631 	mrcvs	6, 3, r6, cr5, cr1, {1}
  6c:	612e7363 	teqvs	lr, r3, ror #6
  70:	2f006d73 	svccs	0x00006d73
  74:	2f74706f 	svccs	0x0074706f
  78:	65626d45 	strbvs	r6, [r2, #-3397]!	; 0xd45
  7c:	796b5364 	stmdbvc	fp!, {r2, r5, r6, r8, r9, ip, lr}^
  80:	6975622f 	ldmdbvs	r5!, {r0, r1, r2, r3, r5, r9, sp, lr}^
  84:	632d646c 	teqvs	sp, #1811939328	; 0x6c000000
  88:	736f6f72 	cmnvc	pc, #456	; 0x1c8
  8c:	6c6f6f74 	stclvs	15, cr6, [pc], #-464	; 0xfffffe30
  90:	622e2f73 	eorvs	r2, lr, #460	; 0x1cc
  94:	646c6975 	strbtvs	r6, [ip], #-2421	; 0x975
  98:	6d72612f 	ldfvse	f6, [r2, #-188]!	; 0xffffff44
  9c:	626d652d 	rsbvs	r6, sp, #188743680	; 0xb400000
  a0:	6b736465 	blvs	1cd923c <_start-0xce346dd4>
  a4:	696c2d79 	stmdbvs	ip!, {r0, r3, r4, r5, r6, r8, sl, fp, sp}^
  a8:	2d78756e 	cfldr64cs	mvdx7, [r8, #-440]!	; 0xfffffe48
  ac:	65756e67 	ldrbvs	r6, [r5, #-3687]!	; 0xe67
  b0:	2f696261 	svccs	0x00696261
  b4:	6c697562 	cfstr64vs	mvdx7, [r9], #-392	; 0xfffffe78
  b8:	75622f64 	strbvc	r2, [r2, #-3940]!	; 0xf64
  bc:	2d646c69 	stclcs	12, cr6, [r4, #-420]!	; 0xfffffe5c
  c0:	612f6363 	teqvs	pc, r3, ror #6
  c4:	652d6d72 	strvs	r6, [sp, #-3442]!	; 0xd72
  c8:	6465626d 	strbtvs	r6, [r5], #-621	; 0x26d
  cc:	2d796b73 	fldmdbxcs	r9!, {d22-d78}	;@ Deprecated
  d0:	756e696c 	strbvc	r6, [lr, #-2412]!	; 0x96c
  d4:	6e672d78 	mcrvs	13, 3, r2, cr7, cr8, {3}
  d8:	62616575 	rsbvs	r6, r1, #490733568	; 0x1d400000
  dc:	696c2f69 	stmdbvs	ip!, {r0, r3, r5, r6, r8, r9, sl, fp, sp}^
  e0:	63636762 	cmnvs	r3, #25690112	; 0x1880000
  e4:	554e4700 	strbpl	r4, [lr, #-1792]	; 0x700
  e8:	20534120 	subscs	r4, r3, r0, lsr #2
  ec:	30322e32 	eorscc	r2, r2, r2, lsr lr
  f0:	0100312e 	tsteq	r0, lr, lsr #2
  f4:	0000f180 	andeq	pc, r0, r0, lsl #3
  f8:	14000200 	strne	r0, [r0], #-512	; 0x200
  fc:	04000000 	streq	r0, [r0]
 100:	0000b201 	andeq	fp, r0, r1, lsl #4
 104:	02158800 	andseq	r8, r5, #0
 108:	021598d0 	andseq	r9, r5, #13631488	; 0xd00000
 10c:	706f2fd0 	ldrdvc	r2, [pc, #-240]	; 24 <_start-0xd001ffec>
 110:	6d452f74 	stclvs	15, cr2, [r5, #-464]	; 0xfffffe30
 114:	53646562 	cmnpl	r4, #411041792	; 0x18800000
 118:	622f796b 	eorvs	r7, pc, #1753088	; 0x1ac000
 11c:	646c6975 	strbtvs	r6, [ip], #-2421	; 0x975
 120:	6f72632d 	svcvs	0x0072632d
 124:	6f74736f 	svcvs	0x0074736f
 128:	2f736c6f 	svccs	0x00736c6f
 12c:	6975622e 	ldmdbvs	r5!, {r1, r2, r3, r5, r9, sp, lr}^
 130:	732f646c 	teqvc	pc, #1811939328	; 0x6c000000
 134:	672f6372 	undefined instruction 0x672f6372
 138:	342d6363 	strtcc	r6, [sp], #-867	; 0x363
 13c:	362e342e 	strtcc	r3, [lr], -lr, lsr #8
 140:	62696c2f 	rsbvs	r6, r9, #12032	; 0x2f00
 144:	2f636367 	svccs	0x00636367
 148:	672f2e2e 	strvs	r2, [pc, -lr, lsr #28]!
 14c:	632f6363 	teqvs	pc, #-1946157055	; 0x8c000001
 150:	69666e6f 	stmdbvs	r6!, {r0, r1, r2, r3, r5, r6, r9, sl, fp, sp, lr}^
 154:	72612f67 	rsbvc	r2, r1, #412	; 0x19c
 158:	696c2f6d 	stmdbvs	ip!, {r0, r2, r3, r5, r6, r8, r9, sl, fp, sp}^
 15c:	75663162 	strbvc	r3, [r6, #-354]!	; 0x162
 160:	2e73636e 	cdpcs	3, 7, cr6, cr3, cr14, {3}
 164:	006d7361 	rsbeq	r7, sp, r1, ror #6
 168:	74706f2f 	ldrbtvc	r6, [r0], #-3887	; 0xf2f
 16c:	626d452f 	rsbvs	r4, sp, #197132288	; 0xbc00000
 170:	6b536465 	blvs	14d930c <_start-0xceb46d04>
 174:	75622f79 	strbvc	r2, [r2, #-3961]!	; 0xf79
 178:	2d646c69 	stclcs	12, cr6, [r4, #-420]!	; 0xfffffe5c
 17c:	6f6f7263 	svcvs	0x006f7263
 180:	6f6f7473 	svcvs	0x006f7473
 184:	2e2f736c 	cdpcs	3, 2, cr7, cr15, cr12, {3}
 188:	6c697562 	cfstr64vs	mvdx7, [r9], #-392	; 0xfffffe78
 18c:	72612f64 	rsbvc	r2, r1, #400	; 0x190
 190:	6d652d6d 	stclvs	13, cr2, [r5, #-436]!	; 0xfffffe4c
 194:	73646562 	cmnvc	r4, #411041792	; 0x18800000
 198:	6c2d796b 	stcvs	9, cr7, [sp], #-428	; 0xfffffe54
 19c:	78756e69 	ldmdavc	r5!, {r0, r3, r5, r6, r9, sl, fp, sp, lr}^
 1a0:	756e672d 	strbvc	r6, [lr, #-1837]!	; 0x72d
 1a4:	69626165 	stmdbvs	r2!, {r0, r2, r5, r6, r8, sp, lr}^
 1a8:	6975622f 	ldmdbvs	r5!, {r0, r1, r2, r3, r5, r9, sp, lr}^
 1ac:	622f646c 	eorvs	r6, pc, #1811939328	; 0x6c000000
 1b0:	646c6975 	strbtvs	r6, [ip], #-2421	; 0x975
 1b4:	2f63632d 	svccs	0x0063632d
 1b8:	2d6d7261 	sfmcs	f7, 2, [sp, #-388]!	; (stclcs 2, cr7, [sp, #-388]!)	; 0xfffffe7c
 1bc:	65626d65 	strbvs	r6, [r2, #-3429]!	; 0xd65
 1c0:	796b7364 	stmdbvc	fp!, {r2, r5, r6, r8, r9, ip, sp, lr}^
 1c4:	6e696c2d 	cdpvs	12, 6, cr6, cr9, cr13, {1}
 1c8:	672d7875 	undefined instruction 0x672d7875
 1cc:	6165756e 	cmnvs	r5, lr, ror #10
 1d0:	6c2f6962 	stcvs	9, cr6, [pc], #-392	; 0xfffffe78
 1d4:	63676269 	cmnvs	r7, #-1879048186	; 0x90000006
 1d8:	4e470063 	cdpmi	0, 4, cr0, cr7, cr3, {3}
 1dc:	53412055 	movtpl	r2, #4181	; 0x1055
 1e0:	322e3220 	eorcc	r3, lr, #2
 1e4:	00312e30 	eorseq	r2, r1, r0, lsr lr
 1e8:	Address 0x000001e8 is out of bounds.


Disassembly of section .debug_abbrev:

00000000 <.debug_abbrev>:
   0:	10001101 	andne	r1, r0, r1, lsl #2
   4:	12011106 	andne	r1, r1, #-2147483647	; 0x80000001
   8:	1b080301 	blne	200c14 <_start-0xcfe1f3fc>
   c:	13082508 	movwne	r2, #34056	; 0x8508
  10:	00000005 	andeq	r0, r0, r5
  14:	10001101 	andne	r1, r0, r1, lsl #2
  18:	12011106 	andne	r1, r1, #-2147483647	; 0x80000001
  1c:	1b080301 	blne	200c28 <_start-0xcfe1f3e8>
  20:	13082508 	movwne	r2, #34056	; 0x8508
  24:	00000005 	andeq	r0, r0, r5

Disassembly of section .debug_line:

00000000 <.debug_line>:
   0:	000000ae 	andeq	r0, r0, lr, lsr #1
   4:	00710002 	rsbseq	r0, r1, r2
   8:	01020000 	tsteq	r2, r0
   c:	000d0efb 	strdeq	r0, [sp], -fp
  10:	01010101 	tsteq	r1, r1, lsl #2
  14:	01000000 	tsteq	r0, r0
  18:	2f010000 	svccs	0x00010000
  1c:	2f74706f 	svccs	0x0074706f
  20:	65626d45 	strbvs	r6, [r2, #-3397]!	; 0xd45
  24:	796b5364 	stmdbvc	fp!, {r2, r5, r6, r8, r9, ip, lr}^
  28:	6975622f 	ldmdbvs	r5!, {r0, r1, r2, r3, r5, r9, sp, lr}^
  2c:	632d646c 	teqvs	sp, #1811939328	; 0x6c000000
  30:	736f6f72 	cmnvc	pc, #456	; 0x1c8
  34:	6c6f6f74 	stclvs	15, cr6, [pc], #-464	; 0xfffffe30
  38:	622e2f73 	eorvs	r2, lr, #460	; 0x1cc
  3c:	646c6975 	strbtvs	r6, [ip], #-2421	; 0x975
  40:	6372732f 	cmnvs	r2, #-1140850688	; 0xbc000000
  44:	6363672f 	cmnvs	r3, #12320768	; 0xbc0000
  48:	342e342d 	strtcc	r3, [lr], #-1069	; 0x42d
  4c:	6c2f362e 	stcvs	6, cr3, [pc], #-184	; 0xffffff48
  50:	63676269 	cmnvs	r7, #-1879048186	; 0x90000006
  54:	2e2e2f63 	cdpcs	15, 2, cr2, cr14, cr3, {3}
  58:	6363672f 	cmnvs	r3, #12320768	; 0xbc0000
  5c:	6e6f632f 	cdpvs	3, 6, cr6, cr15, cr15, {1}
  60:	2f676966 	svccs	0x00676966
  64:	006d7261 	rsbeq	r7, sp, r1, ror #4
  68:	62696c00 	rsbvs	r6, r9, #0
  6c:	6e756631 	mrcvs	6, 3, r6, cr5, cr1, {1}
  70:	612e7363 	teqvs	lr, r3, ror #6
  74:	01006d73 	tsteq	r0, r3, ror sp
  78:	00000000 	andeq	r0, r0, r0
  7c:	14c40205 	strbne	r0, [r4], #517	; 0x205
  80:	b803d002 	stmdalt	r3, {r1, ip, lr, pc}
  84:	2f2f0106 	svccs	0x002f0106
  88:	2f2f2f2f 	svccs	0x002f2f2f
  8c:	2e7d8c03 	cdpcs	12, 7, cr8, cr13, cr3, {0}
  90:	03d62903 	bicseq	r2, r6, #49152	; 0xc000
  94:	e40802cf 	str	r0, [r8], #-719	; 0x2cf
  98:	2f2f302f 	svccs	0x002f302f
  9c:	322f4c30 	eorcc	r4, pc, #12288	; 0x3000
  a0:	667b8503 	ldrbtvs	r8, [fp], -r3, lsl #10
  a4:	2e058603 	cfmadd32cs	mvax0, mvfx8, mvfx5, mvfx3
  a8:	2f2f2f2f 	svccs	0x002f2f2f
  ac:	0002022f 	andeq	r0, r2, pc, lsr #4
  b0:	008d0101 	addeq	r0, sp, r1, lsl #2
  b4:	00020000 	andeq	r0, r2, r0
  b8:	00000071 	andeq	r0, r0, r1, ror r0
  bc:	0efb0102 	cdpeq	1, 15, cr0, cr11, cr2, {0}
  c0:	0101000d 	tsteq	r1, sp
  c4:	00000101 	andeq	r0, r0, r1, lsl #2
  c8:	00000100 	andeq	r0, r0, r0, lsl #2
  cc:	706f2f01 	rsbvc	r2, pc, r1, lsl #30
  d0:	6d452f74 	stclvs	15, cr2, [r5, #-464]	; 0xfffffe30
  d4:	53646562 	cmnpl	r4, #411041792	; 0x18800000
  d8:	622f796b 	eorvs	r7, pc, #1753088	; 0x1ac000
  dc:	646c6975 	strbtvs	r6, [ip], #-2421	; 0x975
  e0:	6f72632d 	svcvs	0x0072632d
  e4:	6f74736f 	svcvs	0x0074736f
  e8:	2f736c6f 	svccs	0x00736c6f
  ec:	6975622e 	ldmdbvs	r5!, {r1, r2, r3, r5, r9, sp, lr}^
  f0:	732f646c 	teqvc	pc, #1811939328	; 0x6c000000
  f4:	672f6372 	undefined instruction 0x672f6372
  f8:	342d6363 	strtcc	r6, [sp], #-867	; 0x363
  fc:	362e342e 	strtcc	r3, [lr], -lr, lsr #8
 100:	62696c2f 	rsbvs	r6, r9, #12032	; 0x2f00
 104:	2f636367 	svccs	0x00636367
 108:	672f2e2e 	strvs	r2, [pc, -lr, lsr #28]!
 10c:	632f6363 	teqvs	pc, #-1946157055	; 0x8c000001
 110:	69666e6f 	stmdbvs	r6!, {r0, r1, r2, r3, r5, r6, r9, sl, fp, sp, lr}^
 114:	72612f67 	rsbvc	r2, r1, #412	; 0x19c
 118:	6c00006d 	stcvs	0, cr0, [r0], {109}	; 0x6d
 11c:	66316269 	ldrtvs	r6, [r1], -r9, ror #4
 120:	73636e75 	cmnvc	r3, #1872	; 0x750
 124:	6d73612e 	ldfvse	f6, [r3, #-184]!	; 0xffffff48
 128:	00000100 	andeq	r0, r0, r0, lsl #2
 12c:	02050000 	andeq	r0, r5, #0
 130:	d0021588 	andle	r1, r2, r8, lsl #11
 134:	0108c303 	tsteq	r8, r3, lsl #6
 138:	90032f2f 	andls	r2, r3, pc, lsr #30
 13c:	02022e79 	andeq	r2, r2, #1936	; 0x790
 140:	Address 0x00000140 is out of bounds.


Disassembly of section .debug_frame:

00000000 <.debug_frame>:
   0:	0000000c 	andeq	r0, r0, ip
   4:	ffffffff 	undefined instruction 0xffffffff
   8:	7c010001 	stcvc	0, cr0, [r1], {1}
   c:	000d0c0e 	andeq	r0, sp, lr, lsl #24
  10:	00000014 	andeq	r0, r0, r4, lsl r0
  14:	00000000 	andeq	r0, r0, r0
  18:	d00214c4 	andle	r1, r2, r4, asr #9
  1c:	000000ac 	andeq	r0, r0, ip, lsr #1
  20:	028ea002 	addeq	sl, lr, #2
  24:	0000080e 	andeq	r0, r0, lr, lsl #16
